; Listing generated by Microsoft (R) Optimizing Compiler Version 19.11.25547.0 

include listing.inc

INCLUDELIB OLDNAMES

PUBLIC	??_C@_00CNPNBAHC@?$AA@				; `string'
PUBLIC	??_C@_02LMMGGCAJ@?3?5?$AA@			; `string'
PUBLIC	??_C@_0FE@JPLNENK@?5?5?5?5?5?5?5?5?5?5?5?5?5?5?5naive?5?5?5?5?5?5?5func?5@ ; `string'
PUBLIC	??_C@_0BD@OLBABOEK@vector?$DMT?$DO?5too?5long?$AA@ ; `string'
PUBLIC	??_C@_01HCONENDN@?$HL?$AA@			; `string'
PUBLIC	??_C@_01IHBHIGKO@?0?$AA@			; `string'
PUBLIC	??_C@_01CELHOKLL@?$HN?$AA@			; `string'
PUBLIC	??_C@_07CCDOBJC@?5ms?5?$CI?$CJ?5?$AA@		; `string'
PUBLIC	??_C@_01EEMJAFIK@?6?$AA@			; `string'
PUBLIC	??_C@_02PHMGELLB@?6?6?$AA@			; `string'
PUBLIC	??_C@_05NAKBEJEJ@?6n?5?$DN?5?$AA@		; `string'
PUBLIC	??_C@_0P@PBMJDCHB@CPU?5Blocked?516?$AA@		; `string'
PUBLIC	??_C@_0BA@JFNIOLAK@string?5too?5long?$AA@	; `string'
EXTRN	__imp_?rdstate@ios_base@std@@QEBAHXZ:PROC
EXTRN	__imp_?good@ios_base@std@@QEBA_NXZ:PROC
EXTRN	__imp_?flags@ios_base@std@@QEBAHXZ:PROC
EXTRN	__imp_?width@ios_base@std@@QEBA_JXZ:PROC
EXTRN	__imp_?width@ios_base@std@@QEAA_J_J@Z:PROC
EXTRN	__imp_??6?$basic_ostream@DU?$char_traits@D@std@@@std@@QEAAAEAV01@P6AAEAV01@AEAV01@@Z@Z:PROC
EXTRN	__imp_?sputc@?$basic_streambuf@DU?$char_traits@D@std@@@std@@QEAAHD@Z:PROC
EXTRN	__imp_?flush@?$basic_ostream@DU?$char_traits@D@std@@@std@@QEAAAEAV12@XZ:PROC
EXTRN	__imp_?put@?$basic_ostream@DU?$char_traits@D@std@@@std@@QEAAAEAV12@D@Z:PROC
EXTRN	__imp_??6?$basic_ostream@DU?$char_traits@D@std@@@std@@QEAAAEAV01@N@Z:PROC
EXTRN	__imp_??6?$basic_ostream@DU?$char_traits@D@std@@@std@@QEAAAEAV01@H@Z:PROC
EXTRN	__imp_?sputn@?$basic_streambuf@DU?$char_traits@D@std@@@std@@QEAA_JPEBD_J@Z:PROC
EXTRN	__imp_?widen@?$basic_ios@DU?$char_traits@D@std@@@std@@QEBADD@Z:PROC
EXTRN	__imp_?fill@?$basic_ios@DU?$char_traits@D@std@@@std@@QEBADXZ:PROC
EXTRN	__imp_?rdbuf@?$basic_ios@DU?$char_traits@D@std@@@std@@QEBAPEAV?$basic_streambuf@DU?$char_traits@D@std@@@2@XZ:PROC
EXTRN	__imp_?setstate@?$basic_ios@DU?$char_traits@D@std@@@std@@QEAAXH_N@Z:PROC
EXTRN	__imp_?_Osfx@?$basic_ostream@DU?$char_traits@D@std@@@std@@QEAAXXZ:PROC
EXTRN	__imp_?tie@?$basic_ios@DU?$char_traits@D@std@@@std@@QEBAPEAV?$basic_ostream@DU?$char_traits@D@std@@@2@XZ:PROC
EXTRN	__imp__invalid_parameter_noinfo_noreturn:PROC
EXTRN	__imp__Query_perf_counter:PROC
EXTRN	__imp___std_terminate:PROC
EXTRN	??3@YAXPEAX_K@Z:PROC				; operator delete
EXTRN	??3@YAXPEAX@Z:PROC				; operator delete
EXTRN	??_M@YAXPEAX_K1P6AX0@Z@Z:PROC			; `eh vector destructor iterator'
EXTRN	__imp_?_Xlength_error@std@@YAXPEBD@Z:PROC
EXTRN	__imp_?_Xbad_alloc@std@@YAXXZ:PROC
EXTRN	__imp_?uncaught_exception@std@@YA_NXZ:PROC
EXTRN	__imp_?cout@std@@3V?$basic_ostream@DU?$char_traits@D@std@@@1@A:BYTE
EXTRN	__imp__Query_perf_frequency:PROC
EXTRN	??2@YAPEAX_K@Z:PROC				; operator new
EXTRN	__imp_memmove:PROC
EXTRN	__security_check_cookie:PROC
EXTRN	__imp___CxxFrameHandler3:PROC
;	COMDAT ??_C@_0BA@JFNIOLAK@string?5too?5long?$AA@
CONST	SEGMENT
??_C@_0BA@JFNIOLAK@string?5too?5long?$AA@ DB 'string too long', 00H ; `string'
CONST	ENDS
;	COMDAT ??_C@_0P@PBMJDCHB@CPU?5Blocked?516?$AA@
CONST	SEGMENT
??_C@_0P@PBMJDCHB@CPU?5Blocked?516?$AA@ DB 'CPU Blocked 16', 00H ; `string'
CONST	ENDS
;	COMDAT ??_C@_05NAKBEJEJ@?6n?5?$DN?5?$AA@
CONST	SEGMENT
??_C@_05NAKBEJEJ@?6n?5?$DN?5?$AA@ DB 0aH, 'n = ', 00H	; `string'
CONST	ENDS
;	COMDAT ??_C@_02PHMGELLB@?6?6?$AA@
CONST	SEGMENT
??_C@_02PHMGELLB@?6?6?$AA@ DB 0aH, 0aH, 00H		; `string'
CONST	ENDS
;	COMDAT ??_C@_01EEMJAFIK@?6?$AA@
CONST	SEGMENT
??_C@_01EEMJAFIK@?6?$AA@ DB 0aH, 00H			; `string'
CONST	ENDS
;	COMDAT ??_C@_07CCDOBJC@?5ms?5?$CI?$CJ?5?$AA@
CONST	SEGMENT
??_C@_07CCDOBJC@?5ms?5?$CI?$CJ?5?$AA@ DB ' ms () ', 00H	; `string'
CONST	ENDS
;	COMDAT ??_C@_01CELHOKLL@?$HN?$AA@
CONST	SEGMENT
??_C@_01CELHOKLL@?$HN?$AA@ DB '}', 00H			; `string'
CONST	ENDS
;	COMDAT ??_C@_01IHBHIGKO@?0?$AA@
CONST	SEGMENT
??_C@_01IHBHIGKO@?0?$AA@ DB ',', 00H			; `string'
CONST	ENDS
;	COMDAT ??_C@_01HCONENDN@?$HL?$AA@
CONST	SEGMENT
??_C@_01HCONENDN@?$HL?$AA@ DB '{', 00H			; `string'
CONST	ENDS
;	COMDAT ??_C@_0BD@OLBABOEK@vector?$DMT?$DO?5too?5long?$AA@
CONST	SEGMENT
??_C@_0BD@OLBABOEK@vector?$DMT?$DO?5too?5long?$AA@ DB 'vector<T> too long'
	DB	00H						; `string'
CONST	ENDS
;	COMDAT ??_C@_0FE@JPLNENK@?5?5?5?5?5?5?5?5?5?5?5?5?5?5?5naive?5?5?5?5?5?5?5func?5@
CONST	SEGMENT
??_C@_0FE@JPLNENK@?5?5?5?5?5?5?5?5?5?5?5?5?5?5?5naive?5?5?5?5?5?5?5func?5@ DB ' '
	DB	'              naive       func naive   blocked   view blocked'
	DB	'   func view blocked', 0aH, 00H		; `string'
CONST	ENDS
;	COMDAT ??_C@_02LMMGGCAJ@?3?5?$AA@
CONST	SEGMENT
??_C@_02LMMGGCAJ@?3?5?$AA@ DB ': ', 00H			; `string'
CONST	ENDS
;	COMDAT ??_C@_00CNPNBAHC@?$AA@
CONST	SEGMENT
??_C@_00CNPNBAHC@?$AA@ DB 00H				; `string'
CONST	ENDS
PUBLIC	??$_Copy_memmove@PEANPEAN@std@@YAPEANPEAN00@Z	; std::_Copy_memmove<double * __ptr64,double * __ptr64>
PUBLIC	??$forward@AEBU?$pair@V?$vector@NV?$allocator@N@std@@@std@@N@std@@@std@@YAAEBU?$pair@V?$vector@NV?$allocator@N@std@@@std@@N@0@AEBU10@@Z ; std::forward<std::pair<std::vector<double,std::allocator<double> >,double> const & __ptr64>
PUBLIC	??$?RV?$View@PEANNUEmptyList@@@@V?$View@PEBNNUEmptyList@@@@V1@@<lambda_961065762246b99eadeb829041f0d74c>@@QEBAXV?$View@PEANNUEmptyList@@@@V?$View@PEBNNUEmptyList@@@@1@Z ; <lambda_961065762246b99eadeb829041f0d74c>::operator()<View<double * __ptr64,double,EmptyList>,View<double const * __ptr64,double,EmptyList>,View<double const * __ptr64,double,EmptyList> >
PUBLIC	??A?$View@PEBNNU?$List@U?$P@$0BA@$0CAA@@@UEmptyList@@@@@@QEBA?AV?$View@PEBNNUEmptyList@@@@_K@Z ; View<double const * __ptr64,double,List<P<16,512>,EmptyList> >::operator[]
PUBLIC	??$rnz@V?$View@PEANNUEmptyList@@@@V1@V<lambda_3f837a234d39e606b056c86a3fa6e7a3>@@V<lambda_961065762246b99eadeb829041f0d74c>@@PEBNNU?$List@U?$P@$0BA@$00@@UEmptyList@@@@V?$View@PEBNNU?$List@U?$P@$0BA@$0CAA@@@UEmptyList@@@@@@@hof@@YAXV?$View@PEANNUEmptyList@@@@0V<lambda_3f837a234d39e606b056c86a3fa6e7a3>@@V<lambda_961065762246b99eadeb829041f0d74c>@@V?$View@PEBNNU?$List@U?$P@$0BA@$00@@UEmptyList@@@@@@V?$View@PEBNNU?$List@U?$P@$0BA@$0CAA@@@UEmptyList@@@@@@@Z ; hof::rnz<View<double * __ptr64,double,EmptyList>,View<double * __ptr64,double,EmptyList>,<lambda_3f837a234d39e606b056c86a3fa6e7a3>,<lambda_961065762246b99eadeb829041f0d74c>,double const * __ptr64,double,List<P<16,1>,EmptyList>,View<double const * __ptr64,double,List<P<16,512>,EmptyList> > >
PUBLIC	??0?$View@PEBNNU?$List@U?$P@$0BA@$0CAA@@@UEmptyList@@@@@@QEAA@AEBQEBN_K@Z ; View<double const * __ptr64,double,List<P<16,512>,EmptyList> >::View<double const * __ptr64,double,List<P<16,512>,EmptyList> >
PUBLIC	??0?$pair@V?$vector@NV?$allocator@N@std@@@std@@N@std@@QEAA@AEBU01@@Z ; std::pair<std::vector<double,std::allocator<double> >,double>::pair<std::vector<double,std::allocator<double> >,double>
PUBLIC	??$_Rechecked@PEANPEAN@std@@YAAEAPEANAEAPEANPEAN@Z ; std::_Rechecked<double * __ptr64,double * __ptr64>
PUBLIC	??$_Uninitialized_copy_al_unchecked@NNV?$allocator@N@std@@@std@@YAPEANPEAN00AEAV?$allocator@N@0@U_Really_trivial_ptr_iterator_tag@0@U?$integral_constant@_N$00@0@@Z ; std::_Uninitialized_copy_al_unchecked<double,double,std::allocator<double> >
PUBLIC	??$_Ptr_copy_cat@NN@std@@YA?AU_Really_trivial_ptr_iterator_tag@0@AEBQEAN0@Z ; std::_Ptr_copy_cat<double,double>
PUBLIC	??$_Unchecked@PEAN@std@@YAPEANPEAN@Z		; std::_Unchecked<double * __ptr64>
PUBLIC	??$construct@U?$pair@V?$vector@NV?$allocator@N@std@@@std@@N@std@@AEBU12@@?$_Default_allocator_traits@V?$allocator@U?$pair@V?$vector@NV?$allocator@N@std@@@std@@N@std@@@std@@@std@@SAXAEAV?$allocator@U?$pair@V?$vector@NV?$allocator@N@std@@@std@@N@std@@@1@QEAU?$pair@V?$vector@NV?$allocator@N@std@@@std@@N@1@AEBU31@@Z ; std::_Default_allocator_traits<std::allocator<std::pair<std::vector<double,std::allocator<double> >,double> > >::construct<std::pair<std::vector<double,std::allocator<double> >,double>,std::pair<std::vector<double,std::allocator<double> >,double> const & __ptr64>
PUBLIC	??$?RV?$View@PEANNUEmptyList@@@@V0@V0@@<lambda_3f837a234d39e606b056c86a3fa6e7a3>@@QEBAXV?$View@PEANNUEmptyList@@@@00@Z ; <lambda_3f837a234d39e606b056c86a3fa6e7a3>::operator()<View<double * __ptr64,double,EmptyList>,View<double * __ptr64,double,EmptyList>,View<double * __ptr64,double,EmptyList> >
PUBLIC	??$zip@V?$View@PEANNU?$List@U?$P@$0BA@$00@@UEmptyList@@@@@@V<lambda_3f837a234d39e606b056c86a3fa6e7a3>@@PEANNU?$List@U?$P@$0BA@$00@@UEmptyList@@@@V1@@hof@@YAXV?$View@PEANNU?$List@U?$P@$0BA@$00@@UEmptyList@@@@@@V<lambda_3f837a234d39e606b056c86a3fa6e7a3>@@00@Z ; hof::zip<View<double * __ptr64,double,List<P<16,1>,EmptyList> >,<lambda_3f837a234d39e606b056c86a3fa6e7a3>,double * __ptr64,double,List<P<16,1>,EmptyList>,View<double * __ptr64,double,List<P<16,1>,EmptyList> > >
PUBLIC	??A?$View@PEBNNU?$List@U?$P@$0BA@$00@@U?$List@U?$P@$0BA@$0CAA@@@UEmptyList@@@@@@@@QEBA?AV?$View@PEBNNU?$List@U?$P@$0BA@$0CAA@@@UEmptyList@@@@@@_K@Z ; View<double const * __ptr64,double,List<P<16,1>,List<P<16,512>,EmptyList> > >::operator[]
PUBLIC	??$_Uninitialized_copy@PEANPEANV?$allocator@N@std@@@std@@YAPEANPEAN00AEAV?$allocator@N@0@@Z ; std::_Uninitialized_copy<double * __ptr64,double * __ptr64,std::allocator<double> >
PUBLIC	??$?0V?$allocator@N@std@@$$V@?$_Compressed_pair@V?$allocator@N@std@@V?$_Vector_val@U?$_Simple_types@N@std@@@2@$00@std@@QEAA@U_One_then_variadic_args_t@1@$$QEAV?$allocator@N@1@@Z ; std::_Compressed_pair<std::allocator<double>,std::_Vector_val<std::_Simple_types<double> >,1>::_Compressed_pair<std::allocator<double>,std::_Vector_val<std::_Simple_types<double> >,1><std::allocator<double> >
PUBLIC	??$forward@V?$allocator@N@std@@@std@@YA$$QEAV?$allocator@N@0@AEAV10@@Z ; std::forward<std::allocator<double> >
PUBLIC	??$_Rechecked@PEAU?$pair@V?$vector@NV?$allocator@N@std@@@std@@N@std@@PEAU12@@std@@YAAEAPEAU?$pair@V?$vector@NV?$allocator@N@std@@@std@@N@0@AEAPEAU10@PEAU10@@Z ; std::_Rechecked<std::pair<std::vector<double,std::allocator<double> >,double> * __ptr64,std::pair<std::vector<double,std::allocator<double> >,double> * __ptr64>
PUBLIC	??$?0U?$integral_constant@_N$00@std@@@_Unused_parameter@std@@QEAA@$$QEAU?$integral_constant@_N$00@1@@Z ; std::_Unused_parameter::_Unused_parameter<std::integral_constant<bool,1> >
PUBLIC	??$_Uninitialized_copy_al_unchecked@PEBU?$pair@V?$vector@NV?$allocator@N@std@@@std@@N@std@@PEAU12@V?$allocator@U?$pair@V?$vector@NV?$allocator@N@std@@@std@@N@std@@@2@@std@@YAPEAU?$pair@V?$vector@NV?$allocator@N@std@@@std@@N@0@PEBU10@0PEAU10@AEAV?$allocator@U?$pair@V?$vector@NV?$allocator@N@std@@@std@@N@std@@@0@U_General_ptr_iterator_tag@0@U_Unused_parameter@0@@Z ; std::_Uninitialized_copy_al_unchecked<std::pair<std::vector<double,std::allocator<double> >,double> const * __ptr64,std::pair<std::vector<double,std::allocator<double> >,double> * __ptr64,std::allocator<std::pair<std::vector<double,std::allocator<double> >,double> > >
PUBLIC	??$_Ptr_copy_cat@$$CBU?$pair@V?$vector@NV?$allocator@N@std@@@std@@N@std@@U12@@std@@YA?AU_General_ptr_iterator_tag@0@AEBQEBU?$pair@V?$vector@NV?$allocator@N@std@@@std@@N@0@AEBQEAU20@@Z ; std::_Ptr_copy_cat<std::pair<std::vector<double,std::allocator<double> >,double> const ,std::pair<std::vector<double,std::allocator<double> >,double> >
PUBLIC	??$_Unchecked@PEAU?$pair@V?$vector@NV?$allocator@N@std@@@std@@N@std@@@std@@YAPEAU?$pair@V?$vector@NV?$allocator@N@std@@@std@@N@0@PEAU10@@Z ; std::_Unchecked<std::pair<std::vector<double,std::allocator<double> >,double> * __ptr64>
PUBLIC	??$_Unchecked@PEBU?$pair@V?$vector@NV?$allocator@N@std@@@std@@N@std@@@std@@YAPEBU?$pair@V?$vector@NV?$allocator@N@std@@@std@@N@0@PEBU10@@Z ; std::_Unchecked<std::pair<std::vector<double,std::allocator<double> >,double> const * __ptr64>
PUBLIC	??A?$View@PEANNU?$List@U?$P@$0BA@$0BA@@@U?$List@U?$P@$0BA@$00@@UEmptyList@@@@@@@@QEBA?AV?$View@PEANNU?$List@U?$P@$0BA@$00@@UEmptyList@@@@@@_K@Z ; View<double * __ptr64,double,List<P<16,16>,List<P<16,1>,EmptyList> > >::operator[]
PUBLIC	??0?$View@PEBNNU?$List@U?$P@$0BA@$00@@U?$List@U?$P@$0BA@$0CAA@@@UEmptyList@@@@@@@@QEAA@AEBQEBN_K@Z ; View<double const * __ptr64,double,List<P<16,1>,List<P<16,512>,EmptyList> > >::View<double const * __ptr64,double,List<P<16,1>,List<P<16,512>,EmptyList> > >
PUBLIC	??_G?$pair@V?$vector@NV?$allocator@N@std@@@std@@N@std@@QEAAPEAXI@Z ; std::pair<std::vector<double,std::allocator<double> >,double>::`scalar deleting destructor'
PUBLIC	??$_Ucopy@PEAN@?$vector@NV?$allocator@N@std@@@std@@AEAAPEANPEAN00@Z ; std::vector<double,std::allocator<double> >::_Ucopy<double * __ptr64>
PUBLIC	??$?0V?$allocator@N@std@@X@?$_Vector_alloc@U?$_Vec_base_types@NV?$allocator@N@std@@@std@@@std@@QEAA@$$QEAV?$allocator@N@1@@Z ; std::_Vector_alloc<std::_Vec_base_types<double,std::allocator<double> > >::_Vector_alloc<std::_Vec_base_types<double,std::allocator<double> > ><std::allocator<double>,void>
PUBLIC	??$destroy@U?$pair@V?$vector@NV?$allocator@N@std@@@std@@N@std@@@?$_Default_allocator_traits@V?$allocator@U?$pair@V?$vector@NV?$allocator@N@std@@@std@@N@std@@@std@@@std@@SAXAEAV?$allocator@U?$pair@V?$vector@NV?$allocator@N@std@@@std@@N@std@@@1@QEAU?$pair@V?$vector@NV?$allocator@N@std@@@std@@N@1@@Z ; std::_Default_allocator_traits<std::allocator<std::pair<std::vector<double,std::allocator<double> >,double> > >::destroy<std::pair<std::vector<double,std::allocator<double> >,double> >
PUBLIC	??$_Unfancy@U?$pair@V?$vector@NV?$allocator@N@std@@@std@@N@std@@@std@@YAPEAU?$pair@V?$vector@NV?$allocator@N@std@@@std@@N@0@PEAU10@@Z ; std::_Unfancy<std::pair<std::vector<double,std::allocator<double> >,double> >
PUBLIC	??$_Zero_range@PEAN@std@@YAPEANPEAN0@Z		; std::_Zero_range<double * __ptr64>
PUBLIC	??$_Uninitialized_copy@PEBU?$pair@V?$vector@NV?$allocator@N@std@@@std@@N@std@@PEAU12@V?$allocator@U?$pair@V?$vector@NV?$allocator@N@std@@@std@@N@std@@@2@@std@@YAPEAU?$pair@V?$vector@NV?$allocator@N@std@@@std@@N@0@PEBU10@0PEAU10@AEAV?$allocator@U?$pair@V?$vector@NV?$allocator@N@std@@@std@@N@std@@@0@@Z ; std::_Uninitialized_copy<std::pair<std::vector<double,std::allocator<double> >,double> const * __ptr64,std::pair<std::vector<double,std::allocator<double> >,double> * __ptr64,std::allocator<std::pair<std::vector<double,std::allocator<double> >,double> > >
PUBLIC	??$_Distance1@PEBU?$pair@V?$vector@NV?$allocator@N@std@@@std@@N@std@@@std@@YA_JPEBU?$pair@V?$vector@NV?$allocator@N@std@@@std@@N@0@0Urandom_access_iterator_tag@0@@Z ; std::_Distance1<std::pair<std::vector<double,std::allocator<double> >,double> const * __ptr64>
PUBLIC	??A?$View@PEBNNU?$List@U?$P@$0CA@$0CAAA@@@U?$List@U?$P@$0BA@$00@@U?$List@U?$P@$0BA@$0CAA@@@UEmptyList@@@@@@@@@@QEBA?AV?$View@PEBNNU?$List@U?$P@$0BA@$00@@U?$List@U?$P@$0BA@$0CAA@@@UEmptyList@@@@@@@@_K@Z ; View<double const * __ptr64,double,List<P<32,8192>,List<P<16,1>,List<P<16,512>,EmptyList> > > >::operator[]
PUBLIC	?size@?$vector@NV?$allocator@N@std@@@std@@QEBA_KXZ ; std::vector<double,std::allocator<double> >::size
PUBLIC	?_Mylast@?$_Vector_alloc@U?$_Vec_base_types@NV?$allocator@N@std@@@std@@@std@@QEBAAEBQEANXZ ; std::_Vector_alloc<std::_Vec_base_types<double,std::allocator<double> > >::_Mylast
PUBLIC	?select_on_container_copy_construction@?$_Default_allocator_traits@V?$allocator@N@std@@@std@@SA?AV?$allocator@N@2@AEBV32@@Z ; std::_Default_allocator_traits<std::allocator<double> >::select_on_container_copy_construction
PUBLIC	??0?$vector@NV?$allocator@N@std@@@std@@QEAA@AEBV01@@Z ; std::vector<double,std::allocator<double> >::vector<double,std::allocator<double> >
PUBLIC	??0?$_Vector_val@U?$_Simple_types@N@std@@@std@@QEAA@XZ ; std::_Vector_val<std::_Simple_types<double> >::_Vector_val<std::_Simple_types<double> >
PUBLIC	??0?$_Vector_val@U?$_Simple_types@U?$pair@V?$vector@NV?$allocator@N@std@@@std@@N@std@@@std@@@std@@QEAA@XZ ; std::_Vector_val<std::_Simple_types<std::pair<std::vector<double,std::allocator<double> >,double> > >::_Vector_val<std::_Simple_types<std::pair<std::vector<double,std::allocator<double> >,double> > >
PUBLIC	??0?$View@PEBNNU?$List@U?$P@$0CA@$0CAAA@@@U?$List@U?$P@$0BA@$00@@U?$List@U?$P@$0BA@$0CAA@@@UEmptyList@@@@@@@@@@QEAA@AEBQEBN_K@Z ; View<double const * __ptr64,double,List<P<32,8192>,List<P<16,1>,List<P<16,512>,EmptyList> > > >::View<double const * __ptr64,double,List<P<32,8192>,List<P<16,1>,List<P<16,512>,EmptyList> > > >
PUBLIC	??$_Destroy_range1@V?$allocator@N@std@@@std@@YAXPEAN0AEAV?$allocator@N@0@U?$integral_constant@_N$00@0@@Z ; std::_Destroy_range1<std::allocator<double> >
PUBLIC	??$_Destroy_range1@V?$allocator@U?$pair@V?$vector@NV?$allocator@N@std@@@std@@N@std@@@std@@@std@@YAXPEAU?$pair@V?$vector@NV?$allocator@N@std@@@std@@N@0@0AEAV?$allocator@U?$pair@V?$vector@NV?$allocator@N@std@@@std@@N@std@@@0@U?$integral_constant@_N$0A@@0@@Z ; std::_Destroy_range1<std::allocator<std::pair<std::vector<double,std::allocator<double> >,double> > >
PUBLIC	??$_Uninitialized_value_construct_n1@PEAN_KV?$allocator@N@std@@@std@@YAPEANPEAN_KAEAV?$allocator@N@0@U?$integral_constant@_N$00@0@@Z ; std::_Uninitialized_value_construct_n1<double * __ptr64,unsigned __int64,std::allocator<double> >
PUBLIC	??$?0AEBV?$allocator@N@std@@$$V@?$_Compressed_pair@V?$allocator@N@std@@V?$_Vector_val@U?$_Simple_types@N@std@@@2@$00@std@@QEAA@U_One_then_variadic_args_t@1@AEBV?$allocator@N@1@@Z ; std::_Compressed_pair<std::allocator<double>,std::_Vector_val<std::_Simple_types<double> >,1>::_Compressed_pair<std::allocator<double>,std::_Vector_val<std::_Simple_types<double> >,1><std::allocator<double> const & __ptr64>
PUBLIC	??$forward@AEBV?$allocator@N@std@@@std@@YAAEBV?$allocator@N@0@AEBV10@@Z ; std::forward<std::allocator<double> const & __ptr64>
PUBLIC	??$_Ucopy@PEBU?$pair@V?$vector@NV?$allocator@N@std@@@std@@N@std@@@?$vector@U?$pair@V?$vector@NV?$allocator@N@std@@@std@@N@std@@V?$allocator@U?$pair@V?$vector@NV?$allocator@N@std@@@std@@N@std@@@2@@std@@AEAAPEAU?$pair@V?$vector@NV?$allocator@N@std@@@std@@N@1@PEBU21@0PEAU21@@Z ; std::vector<std::pair<std::vector<double,std::allocator<double> >,double>,std::allocator<std::pair<std::vector<double,std::allocator<double> >,double> > >::_Ucopy<std::pair<std::vector<double,std::allocator<double> >,double> const * __ptr64>
PUBLIC	??$distance@PEBU?$pair@V?$vector@NV?$allocator@N@std@@@std@@N@std@@@std@@YA_JPEBU?$pair@V?$vector@NV?$allocator@N@std@@@std@@N@0@0@Z ; std::distance<std::pair<std::vector<double,std::allocator<double> >,double> const * __ptr64>
PUBLIC	??$?0AEBV?$allocator@U?$pair@V?$vector@NV?$allocator@N@std@@@std@@N@std@@@std@@$$V@?$_Compressed_pair@V?$allocator@U?$pair@V?$vector@NV?$allocator@N@std@@@std@@N@std@@@std@@V?$_Vector_val@U?$_Simple_types@U?$pair@V?$vector@NV?$allocator@N@std@@@std@@N@std@@@std@@@2@$00@std@@QEAA@U_One_then_variadic_args_t@1@AEBV?$allocator@U?$pair@V?$vector@NV?$allocator@N@std@@@std@@N@std@@@1@@Z ; std::_Compressed_pair<std::allocator<std::pair<std::vector<double,std::allocator<double> >,double> >,std::_Vector_val<std::_Simple_types<std::pair<std::vector<double,std::allocator<double> >,double> > >,1>::_Compressed_pair<std::allocator<std::pair<std::vector<double,std::allocator<double> >,double> >,std::_Vector_val<std::_Simple_types<std::pair<std::vector<double,std::allocator<double> >,double> > >,1><std::allocator<std::pair<std::vector<double,std::allocator<double> >,double> > const & __ptr64>
PUBLIC	??$forward@AEBV?$allocator@U?$pair@V?$vector@NV?$allocator@N@std@@@std@@N@std@@@std@@@std@@YAAEBV?$allocator@U?$pair@V?$vector@NV?$allocator@N@std@@@std@@N@std@@@0@AEBV10@@Z ; std::forward<std::allocator<std::pair<std::vector<double,std::allocator<double> >,double> > const & __ptr64>
PUBLIC	??A?$View@PEBNNU?$List@U?$P@$0CA@$0BA@@@U?$List@U?$P@$0CA@$0CAAA@@@U?$List@U?$P@$0BA@$00@@U?$List@U?$P@$0BA@$0CAA@@@UEmptyList@@@@@@@@@@@@QEBA?AV?$View@PEBNNU?$List@U?$P@$0CA@$0CAAA@@@U?$List@U?$P@$0BA@$00@@U?$List@U?$P@$0BA@$0CAA@@@UEmptyList@@@@@@@@@@_K@Z ; View<double const * __ptr64,double,List<P<32,16>,List<P<32,8192>,List<P<16,1>,List<P<16,512>,EmptyList> > > > >::operator[]
PUBLIC	??$?0AEAV?$vector@NV?$allocator@N@std@@@std@@NX$0A@@?$pair@V?$vector@NV?$allocator@N@std@@@std@@N@std@@QEAA@AEAV?$vector@NV?$allocator@N@std@@@1@$$QEAN@Z ; std::pair<std::vector<double,std::allocator<double> >,double>::pair<std::vector<double,std::allocator<double> >,double><std::vector<double,std::allocator<double> > & __ptr64,double,void,0>
PUBLIC	??$forward@N@std@@YA$$QEANAEAN@Z		; std::forward<double>
PUBLIC	??$forward@AEAV?$vector@NV?$allocator@N@std@@@std@@@std@@YAAEAV?$vector@NV?$allocator@N@std@@@0@AEAV10@@Z ; std::forward<std::vector<double,std::allocator<double> > & __ptr64>
PUBLIC	??$_Insert_string@DU?$char_traits@D@std@@_K@std@@YAAEAV?$basic_ostream@DU?$char_traits@D@std@@@0@AEAV10@QEBD_K@Z ; std::_Insert_string<char,std::char_traits<char>,unsigned __int64>
PUBLIC	??$?M_JU?$ratio@$00$0DLJKMKAA@@std@@_JU01@@chrono@std@@YA_NAEBV?$duration@_JU?$ratio@$00$0DLJKMKAA@@std@@@01@0@Z ; std::chrono::operator<<__int64,std::ratio<1,1000000000>,__int64,std::ratio<1,1000000000> >
PUBLIC	?_Get_first@?$_Compressed_pair@V?$allocator@U?$pair@V?$vector@NV?$allocator@N@std@@@std@@N@std@@@std@@V?$_Vector_val@U?$_Simple_types@U?$pair@V?$vector@NV?$allocator@N@std@@@std@@N@std@@@std@@@2@$00@std@@QEBAAEBV?$allocator@U?$pair@V?$vector@NV?$allocator@N@std@@@std@@N@std@@@2@XZ ; std::_Compressed_pair<std::allocator<std::pair<std::vector<double,std::allocator<double> >,double> >,std::_Vector_val<std::_Simple_types<std::pair<std::vector<double,std::allocator<double> >,double> > >,1>::_Get_first
PUBLIC	?_Getal@?$_Vector_alloc@U?$_Vec_base_types@U?$pair@V?$vector@NV?$allocator@N@std@@@std@@N@std@@V?$allocator@U?$pair@V?$vector@NV?$allocator@N@std@@@std@@N@std@@@2@@std@@@std@@QEBAAEBV?$allocator@U?$pair@V?$vector@NV?$allocator@N@std@@@std@@N@std@@@2@XZ ; std::_Vector_alloc<std::_Vec_base_types<std::pair<std::vector<double,std::allocator<double> >,double>,std::allocator<std::pair<std::vector<double,std::allocator<double> >,double> > > >::_Getal
PUBLIC	?max_size@?$_Default_allocator_traits@V?$allocator@U?$pair@V?$vector@NV?$allocator@N@std@@@std@@N@std@@@std@@@std@@SA_KAEBV?$allocator@U?$pair@V?$vector@NV?$allocator@N@std@@@std@@N@std@@@2@@Z ; std::_Default_allocator_traits<std::allocator<std::pair<std::vector<double,std::allocator<double> >,double> > >::max_size
PUBLIC	?allocate@?$allocator@U?$pair@V?$vector@NV?$allocator@N@std@@@std@@N@std@@@std@@QEAAPEAU?$pair@V?$vector@NV?$allocator@N@std@@@std@@N@2@_K@Z ; std::allocator<std::pair<std::vector<double,std::allocator<double> >,double> >::allocate
PUBLIC	?max_size@?$vector@U?$pair@V?$vector@NV?$allocator@N@std@@@std@@N@std@@V?$allocator@U?$pair@V?$vector@NV?$allocator@N@std@@@std@@N@std@@@2@@std@@QEBA_KXZ ; std::vector<std::pair<std::vector<double,std::allocator<double> >,double>,std::allocator<std::pair<std::vector<double,std::allocator<double> >,double> > >::max_size
PUBLIC	?_Xlength@?$vector@U?$pair@V?$vector@NV?$allocator@N@std@@@std@@N@std@@V?$allocator@U?$pair@V?$vector@NV?$allocator@N@std@@@std@@N@std@@@2@@std@@CAXXZ ; std::vector<std::pair<std::vector<double,std::allocator<double> >,double>,std::allocator<std::pair<std::vector<double,std::allocator<double> >,double> > >::_Xlength
PUBLIC	?data@?$basic_string@DU?$char_traits@D@std@@V?$allocator@D@2@@std@@QEBAPEBDXZ ; std::basic_string<char,std::char_traits<char>,std::allocator<char> >::data
PUBLIC	?_Buy@?$vector@U?$pair@V?$vector@NV?$allocator@N@std@@@std@@N@std@@V?$allocator@U?$pair@V?$vector@NV?$allocator@N@std@@@std@@N@std@@@2@@std@@AEAA_N_K@Z ; std::vector<std::pair<std::vector<double,std::allocator<double> >,double>,std::allocator<std::pair<std::vector<double,std::allocator<double> >,double> > >::_Buy
PUBLIC	??$_Destroy_range@V?$allocator@N@std@@@std@@YAXPEAN0AEAV?$allocator@N@0@@Z ; std::_Destroy_range<std::allocator<double> >
PUBLIC	??$_Destroy_range@V?$allocator@U?$pair@V?$vector@NV?$allocator@N@std@@@std@@N@std@@@std@@@std@@YAXPEAU?$pair@V?$vector@NV?$allocator@N@std@@@std@@N@0@0AEAV?$allocator@U?$pair@V?$vector@NV?$allocator@N@std@@@std@@N@std@@@0@@Z ; std::_Destroy_range<std::allocator<std::pair<std::vector<double,std::allocator<double> >,double> > >
PUBLIC	??$_Uninitialized_value_construct_n@PEAN_KV?$allocator@N@std@@@std@@YAPEANPEAN_KAEAV?$allocator@N@0@@Z ; std::_Uninitialized_value_construct_n<double * __ptr64,unsigned __int64,std::allocator<double> >
PUBLIC	??$?0AEBV?$allocator@N@std@@X@?$_Vector_alloc@U?$_Vec_base_types@NV?$allocator@N@std@@@std@@@std@@QEAA@AEBV?$allocator@N@1@@Z ; std::_Vector_alloc<std::_Vec_base_types<double,std::allocator<double> > >::_Vector_alloc<std::_Vec_base_types<double,std::allocator<double> > ><std::allocator<double> const & __ptr64,void>
PUBLIC	??$_Unfancy_maybe_null@N@std@@YAPEANPEAN@Z	; std::_Unfancy_maybe_null<double>
PUBLIC	??$_Range_construct_or_tidy@PEBU?$pair@V?$vector@NV?$allocator@N@std@@@std@@N@std@@@?$vector@U?$pair@V?$vector@NV?$allocator@N@std@@@std@@N@std@@V?$allocator@U?$pair@V?$vector@NV?$allocator@N@std@@@std@@N@std@@@2@@std@@AEAAXPEBU?$pair@V?$vector@NV?$allocator@N@std@@@std@@N@1@0Uforward_iterator_tag@1@@Z ; std::vector<std::pair<std::vector<double,std::allocator<double> >,double>,std::allocator<std::pair<std::vector<double,std::allocator<double> >,double> > >::_Range_construct_or_tidy<std::pair<std::vector<double,std::allocator<double> >,double> const * __ptr64>
PUBLIC	??$?0AEBV?$allocator@U?$pair@V?$vector@NV?$allocator@N@std@@@std@@N@std@@@std@@X@?$_Vector_alloc@U?$_Vec_base_types@U?$pair@V?$vector@NV?$allocator@N@std@@@std@@N@std@@V?$allocator@U?$pair@V?$vector@NV?$allocator@N@std@@@std@@N@std@@@2@@std@@@std@@QEAA@AEBV?$allocator@U?$pair@V?$vector@NV?$allocator@N@std@@@std@@N@std@@@1@@Z ; std::_Vector_alloc<std::_Vec_base_types<std::pair<std::vector<double,std::allocator<double> >,double>,std::allocator<std::pair<std::vector<double,std::allocator<double> >,double> > > >::_Vector_alloc<std::_Vec_base_types<std::pair<std::vector<double,std::allocator<double> >,double>,std::allocator<std::pair<std::vector<double,std::allocator<double> >,double> > > ><std::allocator<std::pair<std::vector<double,std::allocator<double> >,double> > const & __ptr64,void>
PUBLIC	??$forward@AEBQEAD@std@@YAAEBQEADAEBQEAD@Z	; std::forward<char * __ptr64 const & __ptr64>
PUBLIC	??$make_pair@AEAV?$vector@NV?$allocator@N@std@@@std@@N@std@@YA?AU?$pair@V?$vector@NV?$allocator@N@std@@@std@@N@0@AEAV?$vector@NV?$allocator@N@std@@@0@$$QEAN@Z ; std::make_pair<std::vector<double,std::allocator<double> > & __ptr64,double>
PUBLIC	??$?6DU?$char_traits@D@std@@V?$allocator@D@1@@std@@YAAEAV?$basic_ostream@DU?$char_traits@D@std@@@0@AEAV10@AEBV?$basic_string@DU?$char_traits@D@std@@V?$allocator@D@2@@0@@Z ; std::operator<<<char,std::char_traits<char>,std::allocator<char> >
PUBLIC	??$?0_JX@?$duration@_JU?$ratio@$00$0PECEA@@std@@@chrono@std@@QEAA@AEB_J@Z ; std::chrono::duration<__int64,std::ratio<1,1000000> >::duration<__int64,std::ratio<1,1000000> ><__int64,void>
PUBLIC	??$?G_JU?$ratio@$00$0DLJKMKAA@@std@@_JU01@@chrono@std@@YA?AV?$duration@_JU?$ratio@$00$0DLJKMKAA@@std@@@01@AEBV201@0@Z ; std::chrono::operator-<__int64,std::ratio<1,1000000000>,__int64,std::ratio<1,1000000000> >
PUBLIC	??$?MUsteady_clock@chrono@std@@V?$duration@_JU?$ratio@$00$0DLJKMKAA@@std@@@12@V312@@chrono@std@@YA_NAEBV?$time_point@Usteady_clock@chrono@std@@V?$duration@_JU?$ratio@$00$0DLJKMKAA@@std@@@23@@01@0@Z ; std::chrono::operator<<std::chrono::steady_clock,std::chrono::duration<__int64,std::ratio<1,1000000000> >,std::chrono::duration<__int64,std::ratio<1,1000000000> > >
PUBLIC	?_Get_first@?$_Compressed_pair@V?$allocator@N@std@@V?$_Vector_val@U?$_Simple_types@N@std@@@2@$00@std@@QEBAAEBV?$allocator@N@2@XZ ; std::_Compressed_pair<std::allocator<double>,std::_Vector_val<std::_Simple_types<double> >,1>::_Get_first
PUBLIC	?_Get_second@?$_Compressed_pair@V?$allocator@U?$pair@V?$vector@NV?$allocator@N@std@@@std@@N@std@@@std@@V?$_Vector_val@U?$_Simple_types@U?$pair@V?$vector@NV?$allocator@N@std@@@std@@N@std@@@std@@@2@$00@std@@QEAAAEAV?$_Vector_val@U?$_Simple_types@U?$pair@V?$vector@NV?$allocator@N@std@@@std@@N@std@@@std@@@2@XZ ; std::_Compressed_pair<std::allocator<std::pair<std::vector<double,std::allocator<double> >,double> >,std::_Vector_val<std::_Simple_types<std::pair<std::vector<double,std::allocator<double> >,double> > >,1>::_Get_second
PUBLIC	?_Getal@?$_Vector_alloc@U?$_Vec_base_types@NV?$allocator@N@std@@@std@@@std@@QEBAAEBV?$allocator@N@2@XZ ; std::_Vector_alloc<std::_Vec_base_types<double,std::allocator<double> > >::_Getal
PUBLIC	?_Myend@?$_Vector_alloc@U?$_Vec_base_types@NV?$allocator@N@std@@@std@@@std@@QEBAAEBQEANXZ ; std::_Vector_alloc<std::_Vec_base_types<double,std::allocator<double> > >::_Myend
PUBLIC	?max_size@?$_Default_allocator_traits@V?$allocator@N@std@@@std@@SA_KAEBV?$allocator@N@2@@Z ; std::_Default_allocator_traits<std::allocator<double> >::max_size
PUBLIC	?_Get_first@?$_Compressed_pair@V?$allocator@N@std@@V?$_Vector_val@U?$_Simple_types@N@std@@@2@$00@std@@QEAAAEAV?$allocator@N@2@XZ ; std::_Compressed_pair<std::allocator<double>,std::_Vector_val<std::_Simple_types<double> >,1>::_Get_first
PUBLIC	?_Get_second@?$_Compressed_pair@V?$allocator@N@std@@V?$_Vector_val@U?$_Simple_types@N@std@@@2@$00@std@@QEAAAEAV?$_Vector_val@U?$_Simple_types@N@std@@@2@XZ ; std::_Compressed_pair<std::allocator<double>,std::_Vector_val<std::_Simple_types<double> >,1>::_Get_second
PUBLIC	?_Get_second@?$_Compressed_pair@V?$allocator@N@std@@V?$_Vector_val@U?$_Simple_types@N@std@@@2@$00@std@@QEBAAEBV?$_Vector_val@U?$_Simple_types@N@std@@@2@XZ ; std::_Compressed_pair<std::allocator<double>,std::_Vector_val<std::_Simple_types<double> >,1>::_Get_second
PUBLIC	?_Get_data@?$_Vector_alloc@U?$_Vec_base_types@U?$pair@V?$vector@NV?$allocator@N@std@@@std@@N@std@@V?$allocator@U?$pair@V?$vector@NV?$allocator@N@std@@@std@@N@std@@@2@@std@@@std@@QEAAAEAV?$_Vector_val@U?$_Simple_types@U?$pair@V?$vector@NV?$allocator@N@std@@@std@@N@std@@@std@@@2@XZ ; std::_Vector_alloc<std::_Vec_base_types<std::pair<std::vector<double,std::allocator<double> >,double>,std::allocator<std::pair<std::vector<double,std::allocator<double> >,double> > > >::_Get_data
PUBLIC	?_Myend@?$_Vector_alloc@U?$_Vec_base_types@U?$pair@V?$vector@NV?$allocator@N@std@@@std@@N@std@@V?$allocator@U?$pair@V?$vector@NV?$allocator@N@std@@@std@@N@std@@@2@@std@@@std@@QEBAAEBQEAU?$pair@V?$vector@NV?$allocator@N@std@@@std@@N@2@XZ ; std::_Vector_alloc<std::_Vec_base_types<std::pair<std::vector<double,std::allocator<double> >,double>,std::allocator<std::pair<std::vector<double,std::allocator<double> >,double> > > >::_Myend
PUBLIC	?_Get_first@?$_Compressed_pair@V?$allocator@U?$pair@V?$vector@NV?$allocator@N@std@@@std@@N@std@@@std@@V?$_Vector_val@U?$_Simple_types@U?$pair@V?$vector@NV?$allocator@N@std@@@std@@N@std@@@std@@@2@$00@std@@QEAAAEAV?$allocator@U?$pair@V?$vector@NV?$allocator@N@std@@@std@@N@std@@@2@XZ ; std::_Compressed_pair<std::allocator<std::pair<std::vector<double,std::allocator<double> >,double> >,std::_Vector_val<std::_Simple_types<std::pair<std::vector<double,std::allocator<double> >,double> > >,1>::_Get_first
PUBLIC	?_Get_second@?$_Compressed_pair@V?$allocator@U?$pair@V?$vector@NV?$allocator@N@std@@@std@@N@std@@@std@@V?$_Vector_val@U?$_Simple_types@U?$pair@V?$vector@NV?$allocator@N@std@@@std@@N@std@@@std@@@2@$00@std@@QEBAAEBV?$_Vector_val@U?$_Simple_types@U?$pair@V?$vector@NV?$allocator@N@std@@@std@@N@std@@@std@@@2@XZ ; std::_Compressed_pair<std::allocator<std::pair<std::vector<double,std::allocator<double> >,double> >,std::_Vector_val<std::_Simple_types<std::pair<std::vector<double,std::allocator<double> >,double> > >,1>::_Get_second
PUBLIC	?deallocate@?$allocator@N@std@@QEAAXQEAN_K@Z	; std::allocator<double>::deallocate
PUBLIC	?allocate@?$allocator@N@std@@QEAAPEAN_K@Z	; std::allocator<double>::allocate
PUBLIC	?max_size@?$vector@NV?$allocator@N@std@@@std@@QEBA_KXZ ; std::vector<double,std::allocator<double> >::max_size
PUBLIC	?capacity@?$vector@NV?$allocator@N@std@@@std@@QEBA_KXZ ; std::vector<double,std::allocator<double> >::capacity
PUBLIC	?_Destroy@?$vector@NV?$allocator@N@std@@@std@@AEAAXPEAN0@Z ; std::vector<double,std::allocator<double> >::_Destroy
PUBLIC	?_Xlength@?$vector@NV?$allocator@N@std@@@std@@CAXXZ ; std::vector<double,std::allocator<double> >::_Xlength
PUBLIC	?_Orphan_all@?$_Vector_alloc@U?$_Vec_base_types@NV?$allocator@N@std@@@std@@@std@@QEAAXXZ ; std::_Vector_alloc<std::_Vec_base_types<double,std::allocator<double> > >::_Orphan_all
PUBLIC	?_Getal@?$_Vector_alloc@U?$_Vec_base_types@NV?$allocator@N@std@@@std@@@std@@QEAAAEAV?$allocator@N@2@XZ ; std::_Vector_alloc<std::_Vec_base_types<double,std::allocator<double> > >::_Getal
PUBLIC	?_Get_data@?$_Vector_alloc@U?$_Vec_base_types@NV?$allocator@N@std@@@std@@@std@@QEAAAEAV?$_Vector_val@U?$_Simple_types@N@std@@@2@XZ ; std::_Vector_alloc<std::_Vec_base_types<double,std::allocator<double> > >::_Get_data
PUBLIC	?_Get_data@?$_Vector_alloc@U?$_Vec_base_types@NV?$allocator@N@std@@@std@@@std@@QEBAAEBV?$_Vector_val@U?$_Simple_types@N@std@@@2@XZ ; std::_Vector_alloc<std::_Vec_base_types<double,std::allocator<double> > >::_Get_data
PUBLIC	?_Myend@?$_Vector_alloc@U?$_Vec_base_types@NV?$allocator@N@std@@@std@@@std@@QEAAAEAPEANXZ ; std::_Vector_alloc<std::_Vec_base_types<double,std::allocator<double> > >::_Myend
PUBLIC	?deallocate@?$allocator@U?$pair@V?$vector@NV?$allocator@N@std@@@std@@N@std@@@std@@QEAAXQEAU?$pair@V?$vector@NV?$allocator@N@std@@@std@@N@2@_K@Z ; std::allocator<std::pair<std::vector<double,std::allocator<double> >,double> >::deallocate
PUBLIC	?capacity@?$vector@U?$pair@V?$vector@NV?$allocator@N@std@@@std@@N@std@@V?$allocator@U?$pair@V?$vector@NV?$allocator@N@std@@@std@@N@std@@@2@@std@@QEBA_KXZ ; std::vector<std::pair<std::vector<double,std::allocator<double> >,double>,std::allocator<std::pair<std::vector<double,std::allocator<double> >,double> > >::capacity
PUBLIC	?_Destroy@?$vector@U?$pair@V?$vector@NV?$allocator@N@std@@@std@@N@std@@V?$allocator@U?$pair@V?$vector@NV?$allocator@N@std@@@std@@N@std@@@2@@std@@AEAAXPEAU?$pair@V?$vector@NV?$allocator@N@std@@@std@@N@2@0@Z ; std::vector<std::pair<std::vector<double,std::allocator<double> >,double>,std::allocator<std::pair<std::vector<double,std::allocator<double> >,double> > >::_Destroy
PUBLIC	?_Orphan_all@?$_Vector_alloc@U?$_Vec_base_types@U?$pair@V?$vector@NV?$allocator@N@std@@@std@@N@std@@V?$allocator@U?$pair@V?$vector@NV?$allocator@N@std@@@std@@N@std@@@2@@std@@@std@@QEAAXXZ ; std::_Vector_alloc<std::_Vec_base_types<std::pair<std::vector<double,std::allocator<double> >,double>,std::allocator<std::pair<std::vector<double,std::allocator<double> >,double> > > >::_Orphan_all
PUBLIC	?_Getal@?$_Vector_alloc@U?$_Vec_base_types@U?$pair@V?$vector@NV?$allocator@N@std@@@std@@N@std@@V?$allocator@U?$pair@V?$vector@NV?$allocator@N@std@@@std@@N@std@@@2@@std@@@std@@QEAAAEAV?$allocator@U?$pair@V?$vector@NV?$allocator@N@std@@@std@@N@std@@@2@XZ ; std::_Vector_alloc<std::_Vec_base_types<std::pair<std::vector<double,std::allocator<double> >,double>,std::allocator<std::pair<std::vector<double,std::allocator<double> >,double> > > >::_Getal
PUBLIC	?_Get_data@?$_Vector_alloc@U?$_Vec_base_types@U?$pair@V?$vector@NV?$allocator@N@std@@@std@@N@std@@V?$allocator@U?$pair@V?$vector@NV?$allocator@N@std@@@std@@N@std@@@2@@std@@@std@@QEBAAEBV?$_Vector_val@U?$_Simple_types@U?$pair@V?$vector@NV?$allocator@N@std@@@std@@N@std@@@std@@@2@XZ ; std::_Vector_alloc<std::_Vec_base_types<std::pair<std::vector<double,std::allocator<double> >,double>,std::allocator<std::pair<std::vector<double,std::allocator<double> >,double> > > >::_Get_data
PUBLIC	?_Myfirst@?$_Vector_alloc@U?$_Vec_base_types@U?$pair@V?$vector@NV?$allocator@N@std@@@std@@N@std@@V?$allocator@U?$pair@V?$vector@NV?$allocator@N@std@@@std@@N@std@@@2@@std@@@std@@QEAAAEAPEAU?$pair@V?$vector@NV?$allocator@N@std@@@std@@N@2@XZ ; std::_Vector_alloc<std::_Vec_base_types<std::pair<std::vector<double,std::allocator<double> >,double>,std::allocator<std::pair<std::vector<double,std::allocator<double> >,double> > > >::_Myfirst
PUBLIC	?_Mylast@?$_Vector_alloc@U?$_Vec_base_types@U?$pair@V?$vector@NV?$allocator@N@std@@@std@@N@std@@V?$allocator@U?$pair@V?$vector@NV?$allocator@N@std@@@std@@N@std@@@2@@std@@@std@@QEAAAEAPEAU?$pair@V?$vector@NV?$allocator@N@std@@@std@@N@2@XZ ; std::_Vector_alloc<std::_Vec_base_types<std::pair<std::vector<double,std::allocator<double> >,double>,std::allocator<std::pair<std::vector<double,std::allocator<double> >,double> > > >::_Mylast
PUBLIC	?_Myend@?$_Vector_alloc@U?$_Vec_base_types@U?$pair@V?$vector@NV?$allocator@N@std@@@std@@N@std@@V?$allocator@U?$pair@V?$vector@NV?$allocator@N@std@@@std@@N@std@@@2@@std@@@std@@QEAAAEAPEAU?$pair@V?$vector@NV?$allocator@N@std@@@std@@N@2@XZ ; std::_Vector_alloc<std::_Vec_base_types<std::pair<std::vector<double,std::allocator<double> >,double>,std::allocator<std::pair<std::vector<double,std::allocator<double> >,double> > > >::_Myend
PUBLIC	??0_Bxty@?$_String_val@U?$_Simple_types@D@std@@@std@@QEAA@XZ ; std::_String_val<std::_Simple_types<char> >::_Bxty::_Bxty
PUBLIC	??0_Sentry_base@?$basic_ostream@DU?$char_traits@D@std@@@std@@QEAA@AEAV12@@Z ; std::basic_ostream<char,std::char_traits<char> >::_Sentry_base::_Sentry_base
PUBLIC	??1_Sentry_base@?$basic_ostream@DU?$char_traits@D@std@@@std@@QEAA@XZ ; std::basic_ostream<char,std::char_traits<char> >::_Sentry_base::~_Sentry_base
PUBLIC	?_Udefault@?$vector@NV?$allocator@N@std@@@std@@AEAAPEANPEAN_K@Z ; std::vector<double,std::allocator<double> >::_Udefault
PUBLIC	?_Buy@?$vector@NV?$allocator@N@std@@@std@@AEAA_N_K@Z ; std::vector<double,std::allocator<double> >::_Buy
PUBLIC	?_Tidy@?$vector@NV?$allocator@N@std@@@std@@AEAAXXZ ; std::vector<double,std::allocator<double> >::_Tidy
PUBLIC	?_Myfirst@?$_Vector_alloc@U?$_Vec_base_types@NV?$allocator@N@std@@@std@@@std@@QEAAAEAPEANXZ ; std::_Vector_alloc<std::_Vec_base_types<double,std::allocator<double> > >::_Myfirst
PUBLIC	?_Myfirst@?$_Vector_alloc@U?$_Vec_base_types@NV?$allocator@N@std@@@std@@@std@@QEBAAEBQEANXZ ; std::_Vector_alloc<std::_Vec_base_types<double,std::allocator<double> > >::_Myfirst
PUBLIC	?_Mylast@?$_Vector_alloc@U?$_Vec_base_types@NV?$allocator@N@std@@@std@@@std@@QEAAAEAPEANXZ ; std::_Vector_alloc<std::_Vec_base_types<double,std::allocator<double> > >::_Mylast
PUBLIC	?_Tidy@?$vector@U?$pair@V?$vector@NV?$allocator@N@std@@@std@@N@std@@V?$allocator@U?$pair@V?$vector@NV?$allocator@N@std@@@std@@N@std@@@2@@std@@AEAAXXZ ; std::vector<std::pair<std::vector<double,std::allocator<double> >,double>,std::allocator<std::pair<std::vector<double,std::allocator<double> >,double> > >::_Tidy
PUBLIC	?_Myfirst@?$_Vector_alloc@U?$_Vec_base_types@U?$pair@V?$vector@NV?$allocator@N@std@@@std@@N@std@@V?$allocator@U?$pair@V?$vector@NV?$allocator@N@std@@@std@@N@std@@@2@@std@@@std@@QEBAAEBQEAU?$pair@V?$vector@NV?$allocator@N@std@@@std@@N@2@XZ ; std::_Vector_alloc<std::_Vec_base_types<std::pair<std::vector<double,std::allocator<double> >,double>,std::allocator<std::pair<std::vector<double,std::allocator<double> >,double> > > >::_Myfirst
PUBLIC	?_Mylast@?$_Vector_alloc@U?$_Vec_base_types@U?$pair@V?$vector@NV?$allocator@N@std@@@std@@N@std@@V?$allocator@U?$pair@V?$vector@NV?$allocator@N@std@@@std@@N@std@@@2@@std@@@std@@QEBAAEBQEAU?$pair@V?$vector@NV?$allocator@N@std@@@std@@N@2@XZ ; std::_Vector_alloc<std::_Vec_base_types<std::pair<std::vector<double,std::allocator<double> >,double>,std::allocator<std::pair<std::vector<double,std::allocator<double> >,double> > > >::_Mylast
PUBLIC	?begin@?$initializer_list@U?$pair@V?$vector@NV?$allocator@N@std@@@std@@N@std@@@std@@QEBAPEBU?$pair@V?$vector@NV?$allocator@N@std@@@std@@N@2@XZ ; std::initializer_list<std::pair<std::vector<double,std::allocator<double> >,double> >::begin
PUBLIC	?end@?$initializer_list@U?$pair@V?$vector@NV?$allocator@N@std@@@std@@N@std@@@std@@QEBAPEBU?$pair@V?$vector@NV?$allocator@N@std@@@std@@N@2@XZ ; std::initializer_list<std::pair<std::vector<double,std::allocator<double> >,double> >::end
PUBLIC	??0?$allocator@D@std@@QEAA@XZ			; std::allocator<char>::allocator<char>
PUBLIC	?_Calculate_growth@?$basic_string@DU?$char_traits@D@std@@V?$allocator@D@2@@std@@QEBA_K_K@Z ; std::basic_string<char,std::char_traits<char>,std::allocator<char> >::_Calculate_growth
PUBLIC	?_Xlen@?$basic_string@DU?$char_traits@D@std@@V?$allocator@D@2@@std@@SAXXZ ; std::basic_string<char,std::char_traits<char>,std::allocator<char> >::_Xlen
PUBLIC	??0?$_String_val@U?$_Simple_types@D@std@@@std@@QEAA@XZ ; std::_String_val<std::_Simple_types<char> >::_String_val<std::_Simple_types<char> >
PUBLIC	??0sentry@?$basic_ostream@DU?$char_traits@D@std@@@std@@QEAA@AEAV12@@Z ; std::basic_ostream<char,std::char_traits<char> >::sentry::sentry
PUBLIC	??1sentry@?$basic_ostream@DU?$char_traits@D@std@@@std@@QEAA@XZ ; std::basic_ostream<char,std::char_traits<char> >::sentry::~sentry
PUBLIC	??Bsentry@?$basic_ostream@DU?$char_traits@D@std@@@std@@QEBA_NXZ ; std::basic_ostream<char,std::char_traits<char> >::sentry::operator bool
PUBLIC	??0?$allocator@N@std@@QEAA@XZ			; std::allocator<double>::allocator<double>
PUBLIC	??0?$vector@NV?$allocator@N@std@@@std@@QEAA@_KAEBV?$allocator@N@1@@Z ; std::vector<double,std::allocator<double> >::vector<double,std::allocator<double> >
PUBLIC	??1?$vector@NV?$allocator@N@std@@@std@@QEAA@XZ	; std::vector<double,std::allocator<double> >::~vector<double,std::allocator<double> >
PUBLIC	?data@?$vector@NV?$allocator@N@std@@@std@@QEAAPEANXZ ; std::vector<double,std::allocator<double> >::data
PUBLIC	?data@?$vector@NV?$allocator@N@std@@@std@@QEBAPEBNXZ ; std::vector<double,std::allocator<double> >::data
PUBLIC	??A?$vector@NV?$allocator@N@std@@@std@@QEAAAEAN_K@Z ; std::vector<double,std::allocator<double> >::operator[]
PUBLIC	?count@?$duration@_JU?$ratio@$00$0DLJKMKAA@@std@@@chrono@std@@QEBA_JXZ ; std::chrono::duration<__int64,std::ratio<1,1000000000> >::count
PUBLIC	?time_since_epoch@?$time_point@Usteady_clock@chrono@std@@V?$duration@_JU?$ratio@$00$0DLJKMKAA@@std@@@23@@chrono@std@@QEBA?AV?$duration@_JU?$ratio@$00$0DLJKMKAA@@std@@@23@XZ ; std::chrono::time_point<std::chrono::steady_clock,std::chrono::duration<__int64,std::ratio<1,1000000000> > >::time_since_epoch
PUBLIC	??0?$allocator@U?$pair@V?$vector@NV?$allocator@N@std@@@std@@N@std@@@std@@QEAA@XZ ; std::allocator<std::pair<std::vector<double,std::allocator<double> >,double> >::allocator<std::pair<std::vector<double,std::allocator<double> >,double> >
PUBLIC	??0?$vector@U?$pair@V?$vector@NV?$allocator@N@std@@@std@@N@std@@V?$allocator@U?$pair@V?$vector@NV?$allocator@N@std@@@std@@N@std@@@2@@std@@QEAA@V?$initializer_list@U?$pair@V?$vector@NV?$allocator@N@std@@@std@@N@std@@@1@AEBV?$allocator@U?$pair@V?$vector@NV?$allocator@N@std@@@std@@N@std@@@1@@Z ; std::vector<std::pair<std::vector<double,std::allocator<double> >,double>,std::allocator<std::pair<std::vector<double,std::allocator<double> >,double> > >::vector<std::pair<std::vector<double,std::allocator<double> >,double>,std::allocator<std::pair<std::vector<double,std::allocator<double> >,double> > >
PUBLIC	??1?$vector@U?$pair@V?$vector@NV?$allocator@N@std@@@std@@N@std@@V?$allocator@U?$pair@V?$vector@NV?$allocator@N@std@@@std@@N@std@@@2@@std@@QEAA@XZ ; std::vector<std::pair<std::vector<double,std::allocator<double> >,double>,std::allocator<std::pair<std::vector<double,std::allocator<double> >,double> > >::~vector<std::pair<std::vector<double,std::allocator<double> >,double>,std::allocator<std::pair<std::vector<double,std::allocator<double> >,double> > >
PUBLIC	?_Unchecked_begin@?$vector@U?$pair@V?$vector@NV?$allocator@N@std@@@std@@N@std@@V?$allocator@U?$pair@V?$vector@NV?$allocator@N@std@@@std@@N@std@@@2@@std@@QEBAPEBU?$pair@V?$vector@NV?$allocator@N@std@@@std@@N@2@XZ ; std::vector<std::pair<std::vector<double,std::allocator<double> >,double>,std::allocator<std::pair<std::vector<double,std::allocator<double> >,double> > >::_Unchecked_begin
PUBLIC	?_Unchecked_end@?$vector@U?$pair@V?$vector@NV?$allocator@N@std@@@std@@N@std@@V?$allocator@U?$pair@V?$vector@NV?$allocator@N@std@@@std@@N@std@@@2@@std@@QEBAPEBU?$pair@V?$vector@NV?$allocator@N@std@@@std@@N@2@XZ ; std::vector<std::pair<std::vector<double,std::allocator<double> >,double>,std::allocator<std::pair<std::vector<double,std::allocator<double> >,double> > >::_Unchecked_end
PUBLIC	??0?$initializer_list@U?$pair@V?$vector@NV?$allocator@N@std@@@std@@N@std@@@std@@QEAA@PEBU?$pair@V?$vector@NV?$allocator@N@std@@@std@@N@1@0@Z ; std::initializer_list<std::pair<std::vector<double,std::allocator<double> >,double> >::initializer_list<std::pair<std::vector<double,std::allocator<double> >,double> >
PUBLIC	??0?$View@PEBNNU?$List@U?$P@$0CA@$0CAAA@@@U?$List@U?$P@$0CA@$0BA@@@U?$List@U?$P@$0BA@$0CAA@@@U?$List@U?$P@$0BA@$00@@UEmptyList@@@@@@@@@@@@QEAA@AEBQEBN_K@Z ; View<double const * __ptr64,double,List<P<32,8192>,List<P<32,16>,List<P<16,512>,List<P<16,1>,EmptyList> > > > >::View<double const * __ptr64,double,List<P<32,8192>,List<P<32,16>,List<P<16,512>,List<P<16,1>,EmptyList> > > > >
PUBLIC	??0?$View@PEANNU?$List@U?$P@$0CA@$0CAAA@@@U?$List@U?$P@$0CA@$0BA@@@U?$List@U?$P@$0BA@$0CAA@@@U?$List@U?$P@$0BA@$00@@UEmptyList@@@@@@@@@@@@QEAA@AEBQEAN_K@Z ; View<double * __ptr64,double,List<P<32,8192>,List<P<32,16>,List<P<16,512>,List<P<16,1>,EmptyList> > > > >::View<double * __ptr64,double,List<P<32,8192>,List<P<32,16>,List<P<16,512>,List<P<16,1>,EmptyList> > > > >
PUBLIC	??0?$View@PEBNNU?$List@U?$P@$0CA@$0BA@@@U?$List@U?$P@$0BA@$0CAA@@@U?$List@U?$P@$0BA@$00@@UEmptyList@@@@@@@@@@QEAA@AEBQEBN_K@Z ; View<double const * __ptr64,double,List<P<32,16>,List<P<16,512>,List<P<16,1>,EmptyList> > > >::View<double const * __ptr64,double,List<P<32,16>,List<P<16,512>,List<P<16,1>,EmptyList> > > >
PUBLIC	??0?$View@PEBNNU?$List@U?$P@$0BA@$0CAA@@@U?$List@U?$P@$0BA@$00@@UEmptyList@@@@@@@@QEAA@AEBQEBN_K@Z ; View<double const * __ptr64,double,List<P<16,512>,List<P<16,1>,EmptyList> > >::View<double const * __ptr64,double,List<P<16,512>,List<P<16,1>,EmptyList> > >
PUBLIC	??0?$View@PEANNU?$List@U?$P@$0CA@$0BA@@@U?$List@U?$P@$0BA@$0CAA@@@U?$List@U?$P@$0BA@$00@@UEmptyList@@@@@@@@@@QEAA@AEBQEAN_K@Z ; View<double * __ptr64,double,List<P<32,16>,List<P<16,512>,List<P<16,1>,EmptyList> > > >::View<double * __ptr64,double,List<P<32,16>,List<P<16,512>,List<P<16,1>,EmptyList> > > >
PUBLIC	??0?$View@PEANNU?$List@U?$P@$0BA@$0CAA@@@U?$List@U?$P@$0BA@$00@@UEmptyList@@@@@@@@QEAA@AEBQEAN_K@Z ; View<double * __ptr64,double,List<P<16,512>,List<P<16,1>,EmptyList> > >::View<double * __ptr64,double,List<P<16,512>,List<P<16,1>,EmptyList> > >
PUBLIC	??0?$View@PEBNNU?$List@U?$P@$0BA@$00@@UEmptyList@@@@@@QEAA@AEBQEBN_K@Z ; View<double const * __ptr64,double,List<P<16,1>,EmptyList> >::View<double const * __ptr64,double,List<P<16,1>,EmptyList> >
PUBLIC	??0?$View@PEBNNUEmptyList@@@@QEAA@PEBN_K@Z	; View<double const * __ptr64,double,EmptyList>::View<double const * __ptr64,double,EmptyList>
PUBLIC	??B?$View@PEBNNUEmptyList@@@@QEBANXZ		; View<double const * __ptr64,double,EmptyList>::operator double
PUBLIC	??0?$View@PEANNU?$List@U?$P@$0BA@$00@@UEmptyList@@@@@@QEAA@AEBQEAN_K@Z ; View<double * __ptr64,double,List<P<16,1>,EmptyList> >::View<double * __ptr64,double,List<P<16,1>,EmptyList> >
PUBLIC	??0?$View@PEANNUEmptyList@@@@QEAA@PEAN_K@Z	; View<double * __ptr64,double,EmptyList>::View<double * __ptr64,double,EmptyList>
PUBLIC	??4?$View@PEANNUEmptyList@@@@QEBAXN@Z		; View<double * __ptr64,double,EmptyList>::operator=
PUBLIC	??B?$View@PEANNUEmptyList@@@@QEBANXZ		; View<double * __ptr64,double,EmptyList>::operator double
PUBLIC	??0?$View@PEBNNU?$List@U?$P@$0CA@$0BA@@@U?$List@U?$P@$0CA@$0CAAA@@@U?$List@U?$P@$0BA@$00@@U?$List@U?$P@$0BA@$0CAA@@@UEmptyList@@@@@@@@@@@@QEAA@AEBQEBN_K@Z ; View<double const * __ptr64,double,List<P<32,16>,List<P<32,8192>,List<P<16,1>,List<P<16,512>,EmptyList> > > > >::View<double const * __ptr64,double,List<P<32,16>,List<P<32,8192>,List<P<16,1>,List<P<16,512>,EmptyList> > > > >
PUBLIC	??0?$View@PEANNU?$List@U?$P@$0BA@$0BA@@@U?$List@U?$P@$0BA@$00@@UEmptyList@@@@@@@@QEAA@AEBQEAN_K@Z ; View<double * __ptr64,double,List<P<16,16>,List<P<16,1>,EmptyList> > >::View<double * __ptr64,double,List<P<16,16>,List<P<16,1>,EmptyList> > >
PUBLIC	?__autoclassinit2@?$View@PEANNUEmptyList@@@@QEAAX_K@Z ; View<double * __ptr64,double,EmptyList>::__autoclassinit2
PUBLIC	?__autoclassinit2@?$View@PEANNU?$List@U?$P@$0BA@$0BA@@@U?$List@U?$P@$0BA@$00@@UEmptyList@@@@@@@@QEAAX_K@Z ; View<double * __ptr64,double,List<P<16,16>,List<P<16,1>,EmptyList> > >::__autoclassinit2
PUBLIC	?__autoclassinit2@?$View@PEBNNU?$List@U?$P@$0CA@$0BA@@@U?$List@U?$P@$0CA@$0CAAA@@@U?$List@U?$P@$0BA@$00@@U?$List@U?$P@$0BA@$0CAA@@@UEmptyList@@@@@@@@@@@@QEAAX_K@Z ; View<double const * __ptr64,double,List<P<32,16>,List<P<32,8192>,List<P<16,1>,List<P<16,512>,EmptyList> > > > >::__autoclassinit2
PUBLIC	??1?$pair@V?$vector@NV?$allocator@N@std@@@std@@N@std@@QEAA@XZ ; std::pair<std::vector<double,std::allocator<double> >,double>::~pair<std::vector<double,std::allocator<double> >,double>
PUBLIC	?__autoclassinit2@?$View@PEANNU?$List@U?$P@$0BA@$0CAA@@@U?$List@U?$P@$0BA@$00@@UEmptyList@@@@@@@@QEAAX_K@Z ; View<double * __ptr64,double,List<P<16,512>,List<P<16,1>,EmptyList> > >::__autoclassinit2
PUBLIC	?__autoclassinit2@?$View@PEBNNU?$List@U?$P@$0BA@$0CAA@@@U?$List@U?$P@$0BA@$00@@UEmptyList@@@@@@@@QEAAX_K@Z ; View<double const * __ptr64,double,List<P<16,512>,List<P<16,1>,EmptyList> > >::__autoclassinit2
PUBLIC	?__autoclassinit2@?$View@PEANNU?$List@U?$P@$0CA@$0CAAA@@@U?$List@U?$P@$0CA@$0BA@@@U?$List@U?$P@$0BA@$0CAA@@@U?$List@U?$P@$0BA@$00@@UEmptyList@@@@@@@@@@@@QEAAX_K@Z ; View<double * __ptr64,double,List<P<32,8192>,List<P<32,16>,List<P<16,512>,List<P<16,1>,EmptyList> > > > >::__autoclassinit2
PUBLIC	?__autoclassinit2@?$View@PEBNNU?$List@U?$P@$0CA@$0CAAA@@@U?$List@U?$P@$0CA@$0BA@@@U?$List@U?$P@$0BA@$0CAA@@@U?$List@U?$P@$0BA@$00@@UEmptyList@@@@@@@@@@@@QEAAX_K@Z ; View<double const * __ptr64,double,List<P<32,8192>,List<P<32,16>,List<P<16,512>,List<P<16,1>,EmptyList> > > > >::__autoclassinit2
PUBLIC	?__autoclassinit2@?$vector@NV?$allocator@N@std@@@std@@QEAAX_K@Z ; std::vector<double,std::allocator<double> >::__autoclassinit2
PUBLIC	??$construct@PEADAEBQEAD@?$_Default_allocator_traits@V?$allocator@D@std@@@std@@SAXAEAV?$allocator@D@1@QEAPEADAEBQEAD@Z ; std::_Default_allocator_traits<std::allocator<char> >::construct<char * __ptr64,char * __ptr64 const & __ptr64>
PUBLIC	??$destroy@PEAD@?$_Default_allocator_traits@V?$allocator@D@std@@@std@@SAXAEAV?$allocator@D@1@QEAPEAD@Z ; std::_Default_allocator_traits<std::allocator<char> >::destroy<char * __ptr64>
PUBLIC	??$addressof@PEAD@std@@YAPEAPEADAEAPEAD@Z	; std::addressof<char * __ptr64>
PUBLIC	??$?0$$V@?$_Compressed_pair@V?$allocator@D@std@@V?$_String_val@U?$_Simple_types@D@std@@@2@$00@std@@QEAA@U_Zero_then_variadic_args_t@1@@Z ; std::_Compressed_pair<std::allocator<char>,std::_String_val<std::_Simple_types<char> >,1>::_Compressed_pair<std::allocator<char>,std::_String_val<std::_Simple_types<char> >,1><>
PUBLIC	??$_Unfancy@D@std@@YAPEADPEAD@Z			; std::_Unfancy<char>
PUBLIC	??$_Min_value@_K@std@@YAAEB_KAEB_K0@Z		; std::_Min_value<unsigned __int64>
PUBLIC	??$functional_view_blocked@$0CAA@$0BA@N@@YA@AEBV?$vector@NV?$allocator@N@std@@@std@@0@Z ; functional_view_blocked<512,16,double>
PUBLIC	??A?$View@PEANNU?$List@U?$P@$0BA@$00@@UEmptyList@@@@@@QEBA?AV?$View@PEANNUEmptyList@@@@_K@Z ; View<double * __ptr64,double,List<P<16,1>,EmptyList> >::operator[]
PUBLIC	??A?$View@PEANNU?$List@U?$P@$0BA@$0CAA@@@U?$List@U?$P@$0BA@$00@@UEmptyList@@@@@@@@QEBA?AV?$View@PEANNU?$List@U?$P@$0BA@$00@@UEmptyList@@@@@@_K@Z ; View<double * __ptr64,double,List<P<16,512>,List<P<16,1>,EmptyList> > >::operator[]
PUBLIC	??A?$View@PEBNNU?$List@U?$P@$0BA@$00@@UEmptyList@@@@@@QEBA?AV?$View@PEBNNUEmptyList@@@@_K@Z ; View<double const * __ptr64,double,List<P<16,1>,EmptyList> >::operator[]
PUBLIC	??A?$View@PEBNNU?$List@U?$P@$0BA@$0CAA@@@U?$List@U?$P@$0BA@$00@@UEmptyList@@@@@@@@QEBA?AV?$View@PEBNNU?$List@U?$P@$0BA@$00@@UEmptyList@@@@@@_K@Z ; View<double const * __ptr64,double,List<P<16,512>,List<P<16,1>,EmptyList> > >::operator[]
PUBLIC	??A?$View@PEANNU?$List@U?$P@$0CA@$0BA@@@U?$List@U?$P@$0BA@$0CAA@@@U?$List@U?$P@$0BA@$00@@UEmptyList@@@@@@@@@@QEBA?AV?$View@PEANNU?$List@U?$P@$0BA@$0CAA@@@U?$List@U?$P@$0BA@$00@@UEmptyList@@@@@@@@_K@Z ; View<double * __ptr64,double,List<P<32,16>,List<P<16,512>,List<P<16,1>,EmptyList> > > >::operator[]
PUBLIC	??A?$View@PEANNU?$List@U?$P@$0CA@$0CAAA@@@U?$List@U?$P@$0CA@$0BA@@@U?$List@U?$P@$0BA@$0CAA@@@U?$List@U?$P@$0BA@$00@@UEmptyList@@@@@@@@@@@@QEBA?AV?$View@PEANNU?$List@U?$P@$0CA@$0BA@@@U?$List@U?$P@$0BA@$0CAA@@@U?$List@U?$P@$0BA@$00@@UEmptyList@@@@@@@@@@_K@Z ; View<double * __ptr64,double,List<P<32,8192>,List<P<32,16>,List<P<16,512>,List<P<16,1>,EmptyList> > > > >::operator[]
PUBLIC	??A?$View@PEBNNU?$List@U?$P@$0CA@$0BA@@@U?$List@U?$P@$0BA@$0CAA@@@U?$List@U?$P@$0BA@$00@@UEmptyList@@@@@@@@@@QEBA?AV?$View@PEBNNU?$List@U?$P@$0BA@$0CAA@@@U?$List@U?$P@$0BA@$00@@UEmptyList@@@@@@@@_K@Z ; View<double const * __ptr64,double,List<P<32,16>,List<P<16,512>,List<P<16,1>,EmptyList> > > >::operator[]
PUBLIC	??A?$View@PEBNNU?$List@U?$P@$0CA@$0CAAA@@@U?$List@U?$P@$0CA@$0BA@@@U?$List@U?$P@$0BA@$0CAA@@@U?$List@U?$P@$0BA@$00@@UEmptyList@@@@@@@@@@@@QEBA?AV?$View@PEBNNU?$List@U?$P@$0CA@$0BA@@@U?$List@U?$P@$0BA@$0CAA@@@U?$List@U?$P@$0BA@$00@@UEmptyList@@@@@@@@@@_K@Z ; View<double const * __ptr64,double,List<P<32,8192>,List<P<32,16>,List<P<16,512>,List<P<16,1>,EmptyList> > > > >::operator[]
PUBLIC	??$view_blocked@$0CAA@$0BA@N@@YA?AU?$pair@V?$vector@NV?$allocator@N@std@@@std@@N@std@@AEBV?$vector@NV?$allocator@N@std@@@1@0@Z ; view_blocked<512,16,double>
PUBLIC	??$invoke@$0CAA@@@YAXXZ				; invoke<512>
PUBLIC	??$?6U?$char_traits@D@std@@@std@@YAAEAV?$basic_ostream@DU?$char_traits@D@std@@@0@AEAV10@PEBD@Z ; std::operator<<<std::char_traits<char> >
PUBLIC	??$duration_cast@V?$duration@_JU?$ratio@$00$0PECEA@@std@@@chrono@std@@_JU?$ratio@$00$0DLJKMKAA@@3@X@chrono@std@@YA?AV?$duration@_JU?$ratio@$00$0PECEA@@std@@@01@AEBV?$duration@_JU?$ratio@$00$0DLJKMKAA@@std@@@01@@Z ; std::chrono::duration_cast<std::chrono::duration<__int64,std::ratio<1,1000000> >,__int64,std::ratio<1,1000000000>,void>
PUBLIC	??$?GUsteady_clock@chrono@std@@V?$duration@_JU?$ratio@$00$0DLJKMKAA@@std@@@12@V312@@chrono@std@@YA?AV?$duration@_JU?$ratio@$00$0DLJKMKAA@@std@@@01@AEBV?$time_point@Usteady_clock@chrono@std@@V?$duration@_JU?$ratio@$00$0DLJKMKAA@@std@@@23@@01@0@Z ; std::chrono::operator-<std::chrono::steady_clock,std::chrono::duration<__int64,std::ratio<1,1000000000> >,std::chrono::duration<__int64,std::ratio<1,1000000000> > >
PUBLIC	??$min@V?$time_point@Usteady_clock@chrono@std@@V?$duration@_JU?$ratio@$00$0DLJKMKAA@@std@@@23@@chrono@std@@@std@@YAAEBV?$time_point@Usteady_clock@chrono@std@@V?$duration@_JU?$ratio@$00$0DLJKMKAA@@std@@@23@@chrono@0@AEBV120@0@Z ; std::min<std::chrono::time_point<std::chrono::steady_clock,std::chrono::duration<__int64,std::ratio<1,1000000000> > > >
PUBLIC	??$max@V?$time_point@Usteady_clock@chrono@std@@V?$duration@_JU?$ratio@$00$0DLJKMKAA@@std@@@23@@chrono@std@@@std@@YAAEBV?$time_point@Usteady_clock@chrono@std@@V?$duration@_JU?$ratio@$00$0DLJKMKAA@@std@@@23@@chrono@0@AEBV120@0@Z ; std::max<std::chrono::time_point<std::chrono::steady_clock,std::chrono::duration<__int64,std::ratio<1,1000000000> > > >
PUBLIC	??$?0_JX@?$duration@_JU?$ratio@$00$0DLJKMKAA@@std@@@chrono@std@@QEAA@AEB_J@Z ; std::chrono::duration<__int64,std::ratio<1,1000000000> >::duration<__int64,std::ratio<1,1000000000> ><__int64,void>
PUBLIC	?max_size@?$_Default_allocator_traits@V?$allocator@D@std@@@std@@SA_KAEBV?$allocator@D@2@@Z ; std::_Default_allocator_traits<std::allocator<char> >::max_size
PUBLIC	?_Get_first@?$_Compressed_pair@V?$allocator@D@std@@V?$_String_val@U?$_Simple_types@D@std@@@2@$00@std@@QEAAAEAV?$allocator@D@2@XZ ; std::_Compressed_pair<std::allocator<char>,std::_String_val<std::_Simple_types<char> >,1>::_Get_first
PUBLIC	?_Get_first@?$_Compressed_pair@V?$allocator@D@std@@V?$_String_val@U?$_Simple_types@D@std@@@2@$00@std@@QEBAAEBV?$allocator@D@2@XZ ; std::_Compressed_pair<std::allocator<char>,std::_String_val<std::_Simple_types<char> >,1>::_Get_first
PUBLIC	?_Get_second@?$_Compressed_pair@V?$allocator@D@std@@V?$_String_val@U?$_Simple_types@D@std@@@2@$00@std@@QEAAAEAV?$_String_val@U?$_Simple_types@D@std@@@2@XZ ; std::_Compressed_pair<std::allocator<char>,std::_String_val<std::_Simple_types<char> >,1>::_Get_second
PUBLIC	?_Get_second@?$_Compressed_pair@V?$allocator@D@std@@V?$_String_val@U?$_Simple_types@D@std@@@2@$00@std@@QEBAAEBV?$_String_val@U?$_Simple_types@D@std@@@2@XZ ; std::_Compressed_pair<std::allocator<char>,std::_String_val<std::_Simple_types<char> >,1>::_Get_second
PUBLIC	?deallocate@?$allocator@D@std@@QEAAXQEAD_K@Z	; std::allocator<char>::deallocate
PUBLIC	?allocate@?$allocator@D@std@@QEAAPEAD_K@Z	; std::allocator<char>::allocate
PUBLIC	?assign@?$basic_string@DU?$char_traits@D@std@@V?$allocator@D@2@@std@@QEAAAEAV12@QEBD_K@Z ; std::basic_string<char,std::char_traits<char>,std::allocator<char> >::assign
PUBLIC	?assign@?$basic_string@DU?$char_traits@D@std@@V?$allocator@D@2@@std@@QEAAAEAV12@QEBD@Z ; std::basic_string<char,std::char_traits<char>,std::allocator<char> >::assign
PUBLIC	?size@?$basic_string@DU?$char_traits@D@std@@V?$allocator@D@2@@std@@QEBA_KXZ ; std::basic_string<char,std::char_traits<char>,std::allocator<char> >::size
PUBLIC	??$_Max_value@_K@std@@YAAEB_KAEB_K0@Z		; std::_Max_value<unsigned __int64>
PUBLIC	?max_size@?$basic_string@DU?$char_traits@D@std@@V?$allocator@D@2@@std@@QEBA_KXZ ; std::basic_string<char,std::char_traits<char>,std::allocator<char> >::max_size
PUBLIC	?_Tidy_init@?$basic_string@DU?$char_traits@D@std@@V?$allocator@D@2@@std@@QEAAXXZ ; std::basic_string<char,std::char_traits<char>,std::allocator<char> >::_Tidy_init
PUBLIC	?_Tidy_deallocate@?$basic_string@DU?$char_traits@D@std@@V?$allocator@D@2@@std@@QEAAXXZ ; std::basic_string<char,std::char_traits<char>,std::allocator<char> >::_Tidy_deallocate
PUBLIC	??0?$_String_alloc@U?$_String_base_types@DV?$allocator@D@std@@@std@@@std@@QEAA@XZ ; std::_String_alloc<std::_String_base_types<char,std::allocator<char> > >::_String_alloc<std::_String_base_types<char,std::allocator<char> > >
PUBLIC	?_Orphan_all@?$_String_alloc@U?$_String_base_types@DV?$allocator@D@std@@@std@@@std@@QEAAXXZ ; std::_String_alloc<std::_String_base_types<char,std::allocator<char> > >::_Orphan_all
PUBLIC	?_Getal@?$_String_alloc@U?$_String_base_types@DV?$allocator@D@std@@@std@@@std@@QEAAAEAV?$allocator@D@2@XZ ; std::_String_alloc<std::_String_base_types<char,std::allocator<char> > >::_Getal
PUBLIC	?_Getal@?$_String_alloc@U?$_String_base_types@DV?$allocator@D@std@@@std@@@std@@QEBAAEBV?$allocator@D@2@XZ ; std::_String_alloc<std::_String_base_types<char,std::allocator<char> > >::_Getal
PUBLIC	?_Get_data@?$_String_alloc@U?$_String_base_types@DV?$allocator@D@std@@@std@@@std@@QEAAAEAV?$_String_val@U?$_Simple_types@D@std@@@2@XZ ; std::_String_alloc<std::_String_base_types<char,std::allocator<char> > >::_Get_data
PUBLIC	?_Get_data@?$_String_alloc@U?$_String_base_types@DV?$allocator@D@std@@@std@@@std@@QEBAAEBV?$_String_val@U?$_Simple_types@D@std@@@2@XZ ; std::_String_alloc<std::_String_base_types<char,std::allocator<char> > >::_Get_data
PUBLIC	?_Myptr@?$_String_val@U?$_Simple_types@D@std@@@std@@QEAAPEADXZ ; std::_String_val<std::_Simple_types<char> >::_Myptr
PUBLIC	?_Myptr@?$_String_val@U?$_Simple_types@D@std@@@std@@QEBAPEBDXZ ; std::_String_val<std::_Simple_types<char> >::_Myptr
PUBLIC	?_Large_string_engaged@?$_String_val@U?$_Simple_types@D@std@@@std@@QEBA_NXZ ; std::_String_val<std::_Simple_types<char> >::_Large_string_engaged
PUBLIC	??1_Bxty@?$_String_val@U?$_Simple_types@D@std@@@std@@QEAA@XZ ; std::_String_val<std::_Simple_types<char> >::_Bxty::~_Bxty
PUBLIC	??1?$_String_val@U?$_Simple_types@D@std@@@std@@QEAA@XZ ; std::_String_val<std::_Simple_types<char> >::~_String_val<std::_Simple_types<char> >
PUBLIC	??1?$_Compressed_pair@V?$allocator@D@std@@V?$_String_val@U?$_Simple_types@D@std@@@2@$00@std@@QEAA@XZ ; std::_Compressed_pair<std::allocator<char>,std::_String_val<std::_Simple_types<char> >,1>::~_Compressed_pair<std::allocator<char>,std::_String_val<std::_Simple_types<char> >,1>
PUBLIC	??1?$_String_alloc@U?$_String_base_types@DV?$allocator@D@std@@@std@@@std@@QEAA@XZ ; std::_String_alloc<std::_String_base_types<char,std::allocator<char> > >::~_String_alloc<std::_String_base_types<char,std::allocator<char> > >
PUBLIC	??0?$basic_string@DU?$char_traits@D@std@@V?$allocator@D@2@@std@@QEAA@QEBD@Z ; std::basic_string<char,std::char_traits<char>,std::allocator<char> >::basic_string<char,std::char_traits<char>,std::allocator<char> >
PUBLIC	??1?$basic_string@DU?$char_traits@D@std@@V?$allocator@D@2@@std@@QEAA@XZ ; std::basic_string<char,std::char_traits<char>,std::allocator<char> >::~basic_string<char,std::char_traits<char>,std::allocator<char> >
PUBLIC	?count@?$duration@_JU?$ratio@$00$0PECEA@@std@@@chrono@std@@QEBA_JXZ ; std::chrono::duration<__int64,std::ratio<1,1000000> >::count
PUBLIC	??0?$time_point@Usteady_clock@chrono@std@@V?$duration@_JU?$ratio@$00$0DLJKMKAA@@std@@@23@@chrono@std@@QEAA@AEBV?$duration@_JU?$ratio@$00$0DLJKMKAA@@std@@@12@@Z ; std::chrono::time_point<std::chrono::steady_clock,std::chrono::duration<__int64,std::ratio<1,1000000000> > >::time_point<std::chrono::steady_clock,std::chrono::duration<__int64,std::ratio<1,1000000000> > >
PUBLIC	main
PUBLIC	?ms@@YANAEBV?$time_point@Usteady_clock@chrono@std@@V?$duration@_JU?$ratio@$00$0DLJKMKAA@@std@@@23@@chrono@std@@0@Z ; ms
PUBLIC	?now@steady_clock@chrono@std@@SA?AV?$time_point@Usteady_clock@chrono@std@@V?$duration@_JU?$ratio@$00$0DLJKMKAA@@std@@@23@@23@XZ ; std::chrono::steady_clock::now
PUBLIC	??$_Convert_size@_K@std@@YA_K_K@Z		; std::_Convert_size<unsigned __int64>
PUBLIC	?_Deallocate@std@@YAXPEAX_K1@Z			; std::_Deallocate
PUBLIC	?_Allocate@std@@YAPEAX_K0_N@Z			; std::_Allocate
PUBLIC	?max@?$numeric_limits@_J@std@@SA_JXZ		; std::numeric_limits<__int64>::max
PUBLIC	?_Orphan_all@_Container_base0@std@@QEAAXXZ	; std::_Container_base0::_Orphan_all
PUBLIC	?eof@?$char_traits@D@std@@SAHXZ			; std::char_traits<char>::eof
PUBLIC	?eq_int_type@?$char_traits@D@std@@SA_NAEBH0@Z	; std::char_traits<char>::eq_int_type
PUBLIC	?assign@?$char_traits@D@std@@SAXAEADAEBD@Z	; std::char_traits<char>::assign
PUBLIC	?move@?$char_traits@D@std@@SAPEADQEADQEBD_K@Z	; std::char_traits<char>::move
PUBLIC	?copy@?$char_traits@D@std@@SAPEADQEADQEBD_K@Z	; std::char_traits<char>::copy
PUBLIC	?length@?$char_traits@D@std@@SA_KQEBD@Z		; std::char_traits<char>::length
PUBLIC	??3@YAXPEAX0@Z					; operator delete
PUBLIC	??2@YAPEAX_KPEAX@Z				; operator new
PUBLIC	?add@hof@@3V<lambda>@@A				; hof::add
PUBLIC	?mul@hof@@3V<lambda>@@A				; hof::mul
PUBLIC	__real@3ed0000000000000
PUBLIC	__real@408f400000000000
PUBLIC	__real@43f0000000000000
EXTRN	_CxxThrowException:PROC
EXTRN	__CxxFrameHandler3:PROC
EXTRN	__GSHandlerCheck:PROC
EXTRN	__GSHandlerCheck_EH:PROC
EXTRN	__std_terminate:PROC
EXTRN	memcpy:PROC
EXTRN	memset:PROC
EXTRN	__security_cookie:QWORD
EXTRN	_fltused:DWORD
?add@hof@@3V<lambda>@@A DB 01H DUP (?)			; hof::add
?mul@hof@@3V<lambda>@@A DB 01H DUP (?)			; hof::mul
_BSS	ENDS
;	COMDAT pdata
pdata	SEGMENT
$pdata$??$_Copy_memmove@PEANPEAN@std@@YAPEANPEAN00@Z DD imagerel $LN4
	DD	imagerel $LN4+49
	DD	imagerel $unwind$??$_Copy_memmove@PEANPEAN@std@@YAPEANPEAN00@Z
pdata	ENDS
;	COMDAT pdata
pdata	SEGMENT
$pdata$??$rnz@V?$View@PEANNUEmptyList@@@@V1@V<lambda_3f837a234d39e606b056c86a3fa6e7a3>@@V<lambda_961065762246b99eadeb829041f0d74c>@@PEBNNU?$List@U?$P@$0BA@$00@@UEmptyList@@@@V?$View@PEBNNU?$List@U?$P@$0BA@$0CAA@@@UEmptyList@@@@@@@hof@@YAXV?$View@PEANNUEmptyList@@@@0V<lambda_3f837a234d39e606b056c86a3fa6e7a3>@@V<lambda_961065762246b99eadeb829041f0d74c>@@V?$View@PEBNNU?$List@U?$P@$0BA@$00@@UEmptyList@@@@@@V?$View@PEBNNU?$List@U?$P@$0BA@$0CAA@@@UEmptyList@@@@@@@Z DD imagerel $LN52
	DD	imagerel $LN52+774
	DD	imagerel $unwind$??$rnz@V?$View@PEANNUEmptyList@@@@V1@V<lambda_3f837a234d39e606b056c86a3fa6e7a3>@@V<lambda_961065762246b99eadeb829041f0d74c>@@PEBNNU?$List@U?$P@$0BA@$00@@UEmptyList@@@@V?$View@PEBNNU?$List@U?$P@$0BA@$0CAA@@@UEmptyList@@@@@@@hof@@YAXV?$View@PEANNUEmptyList@@@@0V<lambda_3f837a234d39e606b056c86a3fa6e7a3>@@V<lambda_961065762246b99eadeb829041f0d74c>@@V?$View@PEBNNU?$List@U?$P@$0BA@$00@@UEmptyList@@@@@@V?$View@PEBNNU?$List@U?$P@$0BA@$0CAA@@@UEmptyList@@@@@@@Z
pdata	ENDS
;	COMDAT pdata
pdata	SEGMENT
$pdata$??0?$pair@V?$vector@NV?$allocator@N@std@@@std@@N@std@@QEAA@AEBU01@@Z DD imagerel $LN5
	DD	imagerel $LN5+43
	DD	imagerel $unwind$??0?$pair@V?$vector@NV?$allocator@N@std@@@std@@N@std@@QEAA@AEBU01@@Z
pdata	ENDS
;	COMDAT pdata
pdata	SEGMENT
$pdata$??$_Uninitialized_copy_al_unchecked@NNV?$allocator@N@std@@@std@@YAPEANPEAN00AEAV?$allocator@N@0@U_Really_trivial_ptr_iterator_tag@0@U?$integral_constant@_N$00@0@@Z DD imagerel $LN6
	DD	imagerel $LN6+49
	DD	imagerel $unwind$??$_Uninitialized_copy_al_unchecked@NNV?$allocator@N@std@@@std@@YAPEANPEAN00AEAV?$allocator@N@0@U_Really_trivial_ptr_iterator_tag@0@U?$integral_constant@_N$00@0@@Z
pdata	ENDS
;	COMDAT pdata
pdata	SEGMENT
$pdata$??$construct@U?$pair@V?$vector@NV?$allocator@N@std@@@std@@N@std@@AEBU12@@?$_Default_allocator_traits@V?$allocator@U?$pair@V?$vector@NV?$allocator@N@std@@@std@@N@std@@@std@@@std@@SAXAEAV?$allocator@U?$pair@V?$vector@NV?$allocator@N@std@@@std@@N@std@@@1@QEAU?$pair@V?$vector@NV?$allocator@N@std@@@std@@N@1@AEBU31@@Z DD imagerel $LN12
	DD	imagerel $LN12+70
	DD	imagerel $unwind$??$construct@U?$pair@V?$vector@NV?$allocator@N@std@@@std@@N@std@@AEBU12@@?$_Default_allocator_traits@V?$allocator@U?$pair@V?$vector@NV?$allocator@N@std@@@std@@N@std@@@std@@@std@@SAXAEAV?$allocator@U?$pair@V?$vector@NV?$allocator@N@std@@@std@@N@std@@@1@QEAU?$pair@V?$vector@NV?$allocator@N@std@@@std@@N@1@AEBU31@@Z
pdata	ENDS
;	COMDAT pdata
pdata	SEGMENT
$pdata$?dtor$0@?0???$construct@U?$pair@V?$vector@NV?$allocator@N@std@@@std@@N@std@@AEBU12@@?$_Default_allocator_traits@V?$allocator@U?$pair@V?$vector@NV?$allocator@N@std@@@std@@N@std@@@std@@@std@@SAXAEAV?$allocator@U?$pair@V?$vector@NV?$allocator@N@std@@@std@@N@std@@@1@QEAU?$pair@V?$vector@NV?$allocator@N@std@@@std@@N@1@AEBU31@@Z@4HA DD imagerel ?dtor$0@?0???$construct@U?$pair@V?$vector@NV?$allocator@N@std@@@std@@N@std@@AEBU12@@?$_Default_allocator_traits@V?$allocator@U?$pair@V?$vector@NV?$allocator@N@std@@@std@@N@std@@@std@@@std@@SAXAEAV?$allocator@U?$pair@V?$vector@NV?$allocator@N@std@@@std@@N@std@@@1@QEAU?$pair@V?$vector@NV?$allocator@N@std@@@std@@N@1@AEBU31@@Z@4HA
	DD	imagerel ?dtor$0@?0???$construct@U?$pair@V?$vector@NV?$allocator@N@std@@@std@@N@std@@AEBU12@@?$_Default_allocator_traits@V?$allocator@U?$pair@V?$vector@NV?$allocator@N@std@@@std@@N@std@@@std@@@std@@SAXAEAV?$allocator@U?$pair@V?$vector@NV?$allocator@N@std@@@std@@N@std@@@1@QEAU?$pair@V?$vector@NV?$allocator@N@std@@@std@@N@1@AEBU31@@Z@4HA+28
	DD	imagerel $unwind$?dtor$0@?0???$construct@U?$pair@V?$vector@NV?$allocator@N@std@@@std@@N@std@@AEBU12@@?$_Default_allocator_traits@V?$allocator@U?$pair@V?$vector@NV?$allocator@N@std@@@std@@N@std@@@std@@@std@@SAXAEAV?$allocator@U?$pair@V?$vector@NV?$allocator@N@std@@@std@@N@std@@@1@QEAU?$pair@V?$vector@NV?$allocator@N@std@@@std@@N@1@AEBU31@@Z@4HA
pdata	ENDS
;	COMDAT pdata
pdata	SEGMENT
$pdata$??$zip@V?$View@PEANNU?$List@U?$P@$0BA@$00@@UEmptyList@@@@@@V<lambda_3f837a234d39e606b056c86a3fa6e7a3>@@PEANNU?$List@U?$P@$0BA@$00@@UEmptyList@@@@V1@@hof@@YAXV?$View@PEANNU?$List@U?$P@$0BA@$00@@UEmptyList@@@@@@V<lambda_3f837a234d39e606b056c86a3fa6e7a3>@@00@Z DD imagerel $LN32
	DD	imagerel $LN32+472
	DD	imagerel $unwind$??$zip@V?$View@PEANNU?$List@U?$P@$0BA@$00@@UEmptyList@@@@@@V<lambda_3f837a234d39e606b056c86a3fa6e7a3>@@PEANNU?$List@U?$P@$0BA@$00@@UEmptyList@@@@V1@@hof@@YAXV?$View@PEANNU?$List@U?$P@$0BA@$00@@UEmptyList@@@@@@V<lambda_3f837a234d39e606b056c86a3fa6e7a3>@@00@Z
pdata	ENDS
;	COMDAT pdata
pdata	SEGMENT
$pdata$??$?RV?$View@PEANNUEmptyList@@@@V?$View@PEBNNU?$List@U?$P@$0BA@$0CAA@@@UEmptyList@@@@@@@<lambda_1273283c9775fef46ee1404488bda320>@@QEBAXV?$View@PEANNUEmptyList@@@@V?$View@PEBNNU?$List@U?$P@$0BA@$0CAA@@@UEmptyList@@@@@@@Z DD imagerel ??$?RV?$View@PEANNUEmptyList@@@@V?$View@PEBNNU?$List@U?$P@$0BA@$0CAA@@@UEmptyList@@@@@@@<lambda_1273283c9775fef46ee1404488bda320>@@QEBAXV?$View@PEANNUEmptyList@@@@V?$View@PEBNNU?$List@U?$P@$0BA@$0CAA@@@UEmptyList@@@@@@@Z
	DD	imagerel ??$?RV?$View@PEANNUEmptyList@@@@V?$View@PEBNNU?$List@U?$P@$0BA@$0CAA@@@UEmptyList@@@@@@@<lambda_1273283c9775fef46ee1404488bda320>@@QEBAXV?$View@PEANNUEmptyList@@@@V?$View@PEBNNU?$List@U?$P@$0BA@$0CAA@@@UEmptyList@@@@@@@Z+84
	DD	imagerel $unwind$??$?RV?$View@PEANNUEmptyList@@@@V?$View@PEBNNU?$List@U?$P@$0BA@$0CAA@@@UEmptyList@@@@@@@<lambda_1273283c9775fef46ee1404488bda320>@@QEBAXV?$View@PEANNUEmptyList@@@@V?$View@PEBNNU?$List@U?$P@$0BA@$0CAA@@@UEmptyList@@@@@@@Z
pdata	ENDS
;	COMDAT pdata
pdata	SEGMENT
$pdata$??$map@V<lambda_1273283c9775fef46ee1404488bda320>@@PEBNNU?$List@U?$P@$0BA@$00@@U?$List@U?$P@$0BA@$0CAA@@@UEmptyList@@@@@@PEANNU?$List@U?$P@$0BA@$00@@UEmptyList@@@@@hof@@YAXV?$View@PEANNU?$List@U?$P@$0BA@$00@@UEmptyList@@@@@@V<lambda_1273283c9775fef46ee1404488bda320>@@V?$View@PEBNNU?$List@U?$P@$0BA@$00@@U?$List@U?$P@$0BA@$0CAA@@@UEmptyList@@@@@@@@@Z DD imagerel ??$map@V<lambda_1273283c9775fef46ee1404488bda320>@@PEBNNU?$List@U?$P@$0BA@$00@@U?$List@U?$P@$0BA@$0CAA@@@UEmptyList@@@@@@PEANNU?$List@U?$P@$0BA@$00@@UEmptyList@@@@@hof@@YAXV?$View@PEANNU?$List@U?$P@$0BA@$00@@UEmptyList@@@@@@V<lambda_1273283c9775fef46ee1404488bda320>@@V?$View@PEBNNU?$List@U?$P@$0BA@$00@@U?$List@U?$P@$0BA@$0CAA@@@UEmptyList@@@@@@@@@Z
	DD	imagerel ??$map@V<lambda_1273283c9775fef46ee1404488bda320>@@PEBNNU?$List@U?$P@$0BA@$00@@U?$List@U?$P@$0BA@$0CAA@@@UEmptyList@@@@@@PEANNU?$List@U?$P@$0BA@$00@@UEmptyList@@@@@hof@@YAXV?$View@PEANNU?$List@U?$P@$0BA@$00@@UEmptyList@@@@@@V<lambda_1273283c9775fef46ee1404488bda320>@@V?$View@PEBNNU?$List@U?$P@$0BA@$00@@U?$List@U?$P@$0BA@$0CAA@@@UEmptyList@@@@@@@@@Z+213
	DD	imagerel $unwind$??$map@V<lambda_1273283c9775fef46ee1404488bda320>@@PEBNNU?$List@U?$P@$0BA@$00@@U?$List@U?$P@$0BA@$0CAA@@@UEmptyList@@@@@@PEANNU?$List@U?$P@$0BA@$00@@UEmptyList@@@@@hof@@YAXV?$View@PEANNU?$List@U?$P@$0BA@$00@@UEmptyList@@@@@@V<lambda_1273283c9775fef46ee1404488bda320>@@V?$View@PEBNNU?$List@U?$P@$0BA@$00@@U?$List@U?$P@$0BA@$0CAA@@@UEmptyList@@@@@@@@@Z
pdata	ENDS
;	COMDAT pdata
pdata	SEGMENT
$pdata$??$?RV?$View@PEANNUEmptyList@@@@V?$View@PEBNNU?$List@U?$P@$0BA@$0CAA@@@UEmptyList@@@@@@@<lambda_87ccf09596cd73ff58e95777441719b2>@@QEBAXV?$View@PEANNUEmptyList@@@@V?$View@PEBNNU?$List@U?$P@$0BA@$0CAA@@@UEmptyList@@@@@@@Z DD imagerel ??$?RV?$View@PEANNUEmptyList@@@@V?$View@PEBNNU?$List@U?$P@$0BA@$0CAA@@@UEmptyList@@@@@@@<lambda_87ccf09596cd73ff58e95777441719b2>@@QEBAXV?$View@PEANNUEmptyList@@@@V?$View@PEBNNU?$List@U?$P@$0BA@$0CAA@@@UEmptyList@@@@@@@Z
	DD	imagerel ??$?RV?$View@PEANNUEmptyList@@@@V?$View@PEBNNU?$List@U?$P@$0BA@$0CAA@@@UEmptyList@@@@@@@<lambda_87ccf09596cd73ff58e95777441719b2>@@QEBAXV?$View@PEANNUEmptyList@@@@V?$View@PEBNNU?$List@U?$P@$0BA@$0CAA@@@UEmptyList@@@@@@@Z+84
	DD	imagerel $unwind$??$?RV?$View@PEANNUEmptyList@@@@V?$View@PEBNNU?$List@U?$P@$0BA@$0CAA@@@UEmptyList@@@@@@@<lambda_87ccf09596cd73ff58e95777441719b2>@@QEBAXV?$View@PEANNUEmptyList@@@@V?$View@PEBNNU?$List@U?$P@$0BA@$0CAA@@@UEmptyList@@@@@@@Z
pdata	ENDS
;	COMDAT pdata
pdata	SEGMENT
$pdata$??$map@V<lambda_87ccf09596cd73ff58e95777441719b2>@@PEBNNU?$List@U?$P@$0BA@$00@@U?$List@U?$P@$0BA@$0CAA@@@UEmptyList@@@@@@PEANNU?$List@U?$P@$0BA@$00@@UEmptyList@@@@@hof@@YAXV?$View@PEANNU?$List@U?$P@$0BA@$00@@UEmptyList@@@@@@V<lambda_87ccf09596cd73ff58e95777441719b2>@@V?$View@PEBNNU?$List@U?$P@$0BA@$00@@U?$List@U?$P@$0BA@$0CAA@@@UEmptyList@@@@@@@@@Z DD imagerel ??$map@V<lambda_87ccf09596cd73ff58e95777441719b2>@@PEBNNU?$List@U?$P@$0BA@$00@@U?$List@U?$P@$0BA@$0CAA@@@UEmptyList@@@@@@PEANNU?$List@U?$P@$0BA@$00@@UEmptyList@@@@@hof@@YAXV?$View@PEANNU?$List@U?$P@$0BA@$00@@UEmptyList@@@@@@V<lambda_87ccf09596cd73ff58e95777441719b2>@@V?$View@PEBNNU?$List@U?$P@$0BA@$00@@U?$List@U?$P@$0BA@$0CAA@@@UEmptyList@@@@@@@@@Z
	DD	imagerel ??$map@V<lambda_87ccf09596cd73ff58e95777441719b2>@@PEBNNU?$List@U?$P@$0BA@$00@@U?$List@U?$P@$0BA@$0CAA@@@UEmptyList@@@@@@PEANNU?$List@U?$P@$0BA@$00@@UEmptyList@@@@@hof@@YAXV?$View@PEANNU?$List@U?$P@$0BA@$00@@UEmptyList@@@@@@V<lambda_87ccf09596cd73ff58e95777441719b2>@@V?$View@PEBNNU?$List@U?$P@$0BA@$00@@U?$List@U?$P@$0BA@$0CAA@@@UEmptyList@@@@@@@@@Z+213
	DD	imagerel $unwind$??$map@V<lambda_87ccf09596cd73ff58e95777441719b2>@@PEBNNU?$List@U?$P@$0BA@$00@@U?$List@U?$P@$0BA@$0CAA@@@UEmptyList@@@@@@PEANNU?$List@U?$P@$0BA@$00@@UEmptyList@@@@@hof@@YAXV?$View@PEANNU?$List@U?$P@$0BA@$00@@UEmptyList@@@@@@V<lambda_87ccf09596cd73ff58e95777441719b2>@@V?$View@PEBNNU?$List@U?$P@$0BA@$00@@U?$List@U?$P@$0BA@$0CAA@@@UEmptyList@@@@@@@@@Z
pdata	ENDS
;	COMDAT pdata
pdata	SEGMENT
$pdata$??$_Uninitialized_copy@PEANPEANV?$allocator@N@std@@@std@@YAPEANPEAN00AEAV?$allocator@N@0@@Z DD imagerel $LN18
	DD	imagerel $LN18+49
	DD	imagerel $unwind$??$_Uninitialized_copy@PEANPEANV?$allocator@N@std@@@std@@YAPEANPEAN00AEAV?$allocator@N@0@@Z
pdata	ENDS
;	COMDAT pdata
pdata	SEGMENT
$pdata$??$_Uninitialized_copy_al_unchecked@PEBU?$pair@V?$vector@NV?$allocator@N@std@@@std@@N@std@@PEAU12@V?$allocator@U?$pair@V?$vector@NV?$allocator@N@std@@@std@@N@std@@@2@@std@@YAPEAU?$pair@V?$vector@NV?$allocator@N@std@@@std@@N@0@PEBU10@0PEAU10@AEAV?$allocator@U?$pair@V?$vector@NV?$allocator@N@std@@@std@@N@std@@@0@U_General_ptr_iterator_tag@0@U_Unused_parameter@0@@Z DD imagerel $LN28
	DD	imagerel $LN28+95
	DD	imagerel $unwind$??$_Uninitialized_copy_al_unchecked@PEBU?$pair@V?$vector@NV?$allocator@N@std@@@std@@N@std@@PEAU12@V?$allocator@U?$pair@V?$vector@NV?$allocator@N@std@@@std@@N@std@@@2@@std@@YAPEAU?$pair@V?$vector@NV?$allocator@N@std@@@std@@N@0@PEBU10@0PEAU10@AEAV?$allocator@U?$pair@V?$vector@NV?$allocator@N@std@@@std@@N@std@@@0@U_General_ptr_iterator_tag@0@U_Unused_parameter@0@@Z
pdata	ENDS
;	COMDAT pdata
pdata	SEGMENT
$pdata$?dtor$0@?0???$_Uninitialized_copy_al_unchecked@PEBU?$pair@V?$vector@NV?$allocator@N@std@@@std@@N@std@@PEAU12@V?$allocator@U?$pair@V?$vector@NV?$allocator@N@std@@@std@@N@std@@@2@@std@@YAPEAU?$pair@V?$vector@NV?$allocator@N@std@@@std@@N@0@PEBU10@0PEAU10@AEAV?$allocator@U?$pair@V?$vector@NV?$allocator@N@std@@@std@@N@std@@@0@U_General_ptr_iterator_tag@0@U_Unused_parameter@0@@Z@4HA DD imagerel ?dtor$0@?0???$_Uninitialized_copy_al_unchecked@PEBU?$pair@V?$vector@NV?$allocator@N@std@@@std@@N@std@@PEAU12@V?$allocator@U?$pair@V?$vector@NV?$allocator@N@std@@@std@@N@std@@@2@@std@@YAPEAU?$pair@V?$vector@NV?$allocator@N@std@@@std@@N@0@PEBU10@0PEAU10@AEAV?$allocator@U?$pair@V?$vector@NV?$allocator@N@std@@@std@@N@std@@@0@U_General_ptr_iterator_tag@0@U_Unused_parameter@0@@Z@4HA
	DD	imagerel ?dtor$0@?0???$_Uninitialized_copy_al_unchecked@PEBU?$pair@V?$vector@NV?$allocator@N@std@@@std@@N@std@@PEAU12@V?$allocator@U?$pair@V?$vector@NV?$allocator@N@std@@@std@@N@std@@@2@@std@@YAPEAU?$pair@V?$vector@NV?$allocator@N@std@@@std@@N@0@PEBU10@0PEAU10@AEAV?$allocator@U?$pair@V?$vector@NV?$allocator@N@std@@@std@@N@std@@@0@U_General_ptr_iterator_tag@0@U_Unused_parameter@0@@Z@4HA+28
	DD	imagerel $unwind$?dtor$0@?0???$_Uninitialized_copy_al_unchecked@PEBU?$pair@V?$vector@NV?$allocator@N@std@@@std@@N@std@@PEAU12@V?$allocator@U?$pair@V?$vector@NV?$allocator@N@std@@@std@@N@std@@@2@@std@@YAPEAU?$pair@V?$vector@NV?$allocator@N@std@@@std@@N@0@PEBU10@0PEAU10@AEAV?$allocator@U?$pair@V?$vector@NV?$allocator@N@std@@@std@@N@std@@@0@U_General_ptr_iterator_tag@0@U_Unused_parameter@0@@Z@4HA
pdata	ENDS
;	COMDAT pdata
pdata	SEGMENT
$pdata$?catch$3@?0???$_Uninitialized_copy_al_unchecked@PEBU?$pair@V?$vector@NV?$allocator@N@std@@@std@@N@std@@PEAU12@V?$allocator@U?$pair@V?$vector@NV?$allocator@N@std@@@std@@N@std@@@2@@std@@YAPEAU?$pair@V?$vector@NV?$allocator@N@std@@@std@@N@0@PEBU10@0PEAU10@AEAV?$allocator@U?$pair@V?$vector@NV?$allocator@N@std@@@std@@N@std@@@0@U_General_ptr_iterator_tag@0@U_Unused_parameter@0@@Z@4HA DD imagerel ?catch$3@?0???$_Uninitialized_copy_al_unchecked@PEBU?$pair@V?$vector@NV?$allocator@N@std@@@std@@N@std@@PEAU12@V?$allocator@U?$pair@V?$vector@NV?$allocator@N@std@@@std@@N@std@@@2@@std@@YAPEAU?$pair@V?$vector@NV?$allocator@N@std@@@std@@N@0@PEBU10@0PEAU10@AEAV?$allocator@U?$pair@V?$vector@NV?$allocator@N@std@@@std@@N@std@@@0@U_General_ptr_iterator_tag@0@U_Unused_parameter@0@@Z@4HA
	DD	imagerel ?catch$3@?0???$_Uninitialized_copy_al_unchecked@PEBU?$pair@V?$vector@NV?$allocator@N@std@@@std@@N@std@@PEAU12@V?$allocator@U?$pair@V?$vector@NV?$allocator@N@std@@@std@@N@std@@@2@@std@@YAPEAU?$pair@V?$vector@NV?$allocator@N@std@@@std@@N@0@PEBU10@0PEAU10@AEAV?$allocator@U?$pair@V?$vector@NV?$allocator@N@std@@@std@@N@std@@@0@U_General_ptr_iterator_tag@0@U_Unused_parameter@0@@Z@4HA+36
	DD	imagerel $unwind$?catch$3@?0???$_Uninitialized_copy_al_unchecked@PEBU?$pair@V?$vector@NV?$allocator@N@std@@@std@@N@std@@PEAU12@V?$allocator@U?$pair@V?$vector@NV?$allocator@N@std@@@std@@N@std@@@2@@std@@YAPEAU?$pair@V?$vector@NV?$allocator@N@std@@@std@@N@0@PEBU10@0PEAU10@AEAV?$allocator@U?$pair@V?$vector@NV?$allocator@N@std@@@std@@N@std@@@0@U_General_ptr_iterator_tag@0@U_Unused_parameter@0@@Z@4HA
pdata	ENDS
;	COMDAT pdata
pdata	SEGMENT
$pdata$??$?RV?$View@PEANNU?$List@U?$P@$0BA@$00@@UEmptyList@@@@@@V0@V0@@<lambda_b1116c9adf3516ba3c36d924ce54a452>@@QEBAXV?$View@PEANNU?$List@U?$P@$0BA@$00@@UEmptyList@@@@@@00@Z DD imagerel ??$?RV?$View@PEANNU?$List@U?$P@$0BA@$00@@UEmptyList@@@@@@V0@V0@@<lambda_b1116c9adf3516ba3c36d924ce54a452>@@QEBAXV?$View@PEANNU?$List@U?$P@$0BA@$00@@UEmptyList@@@@@@00@Z
	DD	imagerel ??$?RV?$View@PEANNU?$List@U?$P@$0BA@$00@@UEmptyList@@@@@@V0@V0@@<lambda_b1116c9adf3516ba3c36d924ce54a452>@@QEBAXV?$View@PEANNU?$List@U?$P@$0BA@$00@@UEmptyList@@@@@@00@Z+55
	DD	imagerel $unwind$??$?RV?$View@PEANNU?$List@U?$P@$0BA@$00@@UEmptyList@@@@@@V0@V0@@<lambda_b1116c9adf3516ba3c36d924ce54a452>@@QEBAXV?$View@PEANNU?$List@U?$P@$0BA@$00@@UEmptyList@@@@@@00@Z
pdata	ENDS
;	COMDAT pdata
pdata	SEGMENT
$pdata$??$zip@V?$View@PEANNU?$List@U?$P@$0BA@$0CAA@@@U?$List@U?$P@$0BA@$00@@UEmptyList@@@@@@@@V<lambda_b1116c9adf3516ba3c36d924ce54a452>@@PEANNU?$List@U?$P@$0BA@$0CAA@@@U?$List@U?$P@$0BA@$00@@UEmptyList@@@@@@V?$View@PEANNU?$List@U?$P@$0BA@$0BA@@@U?$List@U?$P@$0BA@$00@@UEmptyList@@@@@@@@@hof@@YAXV?$View@PEANNU?$List@U?$P@$0BA@$0CAA@@@U?$List@U?$P@$0BA@$00@@UEmptyList@@@@@@@@V<lambda_b1116c9adf3516ba3c36d924ce54a452>@@0V?$View@PEANNU?$List@U?$P@$0BA@$0BA@@@U?$List@U?$P@$0BA@$00@@UEmptyList@@@@@@@@@Z DD imagerel ??$zip@V?$View@PEANNU?$List@U?$P@$0BA@$0CAA@@@U?$List@U?$P@$0BA@$00@@UEmptyList@@@@@@@@V<lambda_b1116c9adf3516ba3c36d924ce54a452>@@PEANNU?$List@U?$P@$0BA@$0CAA@@@U?$List@U?$P@$0BA@$00@@UEmptyList@@@@@@V?$View@PEANNU?$List@U?$P@$0BA@$0BA@@@U?$List@U?$P@$0BA@$00@@UEmptyList@@@@@@@@@hof@@YAXV?$View@PEANNU?$List@U?$P@$0BA@$0CAA@@@U?$List@U?$P@$0BA@$00@@UEmptyList@@@@@@@@V<lambda_b1116c9adf3516ba3c36d924ce54a452>@@0V?$View@PEANNU?$List@U?$P@$0BA@$0BA@@@U?$List@U?$P@$0BA@$00@@UEmptyList@@@@@@@@@Z
	DD	imagerel ??$zip@V?$View@PEANNU?$List@U?$P@$0BA@$0CAA@@@U?$List@U?$P@$0BA@$00@@UEmptyList@@@@@@@@V<lambda_b1116c9adf3516ba3c36d924ce54a452>@@PEANNU?$List@U?$P@$0BA@$0CAA@@@U?$List@U?$P@$0BA@$00@@UEmptyList@@@@@@V?$View@PEANNU?$List@U?$P@$0BA@$0BA@@@U?$List@U?$P@$0BA@$00@@UEmptyList@@@@@@@@@hof@@YAXV?$View@PEANNU?$List@U?$P@$0BA@$0CAA@@@U?$List@U?$P@$0BA@$00@@UEmptyList@@@@@@@@V<lambda_b1116c9adf3516ba3c36d924ce54a452>@@0V?$View@PEANNU?$List@U?$P@$0BA@$0BA@@@U?$List@U?$P@$0BA@$00@@UEmptyList@@@@@@@@@Z+215
	DD	imagerel $unwind$??$zip@V?$View@PEANNU?$List@U?$P@$0BA@$0CAA@@@U?$List@U?$P@$0BA@$00@@UEmptyList@@@@@@@@V<lambda_b1116c9adf3516ba3c36d924ce54a452>@@PEANNU?$List@U?$P@$0BA@$0CAA@@@U?$List@U?$P@$0BA@$00@@UEmptyList@@@@@@V?$View@PEANNU?$List@U?$P@$0BA@$0BA@@@U?$List@U?$P@$0BA@$00@@UEmptyList@@@@@@@@@hof@@YAXV?$View@PEANNU?$List@U?$P@$0BA@$0CAA@@@U?$List@U?$P@$0BA@$00@@UEmptyList@@@@@@@@V<lambda_b1116c9adf3516ba3c36d924ce54a452>@@0V?$View@PEANNU?$List@U?$P@$0BA@$0BA@@@U?$List@U?$P@$0BA@$00@@UEmptyList@@@@@@@@@Z
pdata	ENDS
;	COMDAT pdata
pdata	SEGMENT
$pdata$??$?RV?$View@PEANNU?$List@U?$P@$0BA@$00@@UEmptyList@@@@@@V?$View@PEBNNU?$List@U?$P@$0BA@$00@@UEmptyList@@@@@@@<lambda_34aff3510488d97e7cf1c072c51f11e0>@@QEBAXV?$View@PEANNU?$List@U?$P@$0BA@$00@@UEmptyList@@@@@@V?$View@PEBNNU?$List@U?$P@$0BA@$00@@UEmptyList@@@@@@@Z DD imagerel ??$?RV?$View@PEANNU?$List@U?$P@$0BA@$00@@UEmptyList@@@@@@V?$View@PEBNNU?$List@U?$P@$0BA@$00@@UEmptyList@@@@@@@<lambda_34aff3510488d97e7cf1c072c51f11e0>@@QEBAXV?$View@PEANNU?$List@U?$P@$0BA@$00@@UEmptyList@@@@@@V?$View@PEBNNU?$List@U?$P@$0BA@$00@@UEmptyList@@@@@@@Z
	DD	imagerel ??$?RV?$View@PEANNU?$List@U?$P@$0BA@$00@@UEmptyList@@@@@@V?$View@PEBNNU?$List@U?$P@$0BA@$00@@UEmptyList@@@@@@@<lambda_34aff3510488d97e7cf1c072c51f11e0>@@QEBAXV?$View@PEANNU?$List@U?$P@$0BA@$00@@UEmptyList@@@@@@V?$View@PEBNNU?$List@U?$P@$0BA@$00@@UEmptyList@@@@@@@Z+230
	DD	imagerel $unwind$??$?RV?$View@PEANNU?$List@U?$P@$0BA@$00@@UEmptyList@@@@@@V?$View@PEBNNU?$List@U?$P@$0BA@$00@@UEmptyList@@@@@@@<lambda_34aff3510488d97e7cf1c072c51f11e0>@@QEBAXV?$View@PEANNU?$List@U?$P@$0BA@$00@@UEmptyList@@@@@@V?$View@PEBNNU?$List@U?$P@$0BA@$00@@UEmptyList@@@@@@@Z
pdata	ENDS
;	COMDAT pdata
pdata	SEGMENT
$pdata$??$map@V<lambda_34aff3510488d97e7cf1c072c51f11e0>@@PEBNNU?$List@U?$P@$0BA@$0CAA@@@U?$List@U?$P@$0BA@$00@@UEmptyList@@@@@@PEANNU?$List@U?$P@$0BA@$0BA@@@U?$List@U?$P@$0BA@$00@@UEmptyList@@@@@@@hof@@YAXV?$View@PEANNU?$List@U?$P@$0BA@$0BA@@@U?$List@U?$P@$0BA@$00@@UEmptyList@@@@@@@@V<lambda_34aff3510488d97e7cf1c072c51f11e0>@@V?$View@PEBNNU?$List@U?$P@$0BA@$0CAA@@@U?$List@U?$P@$0BA@$00@@UEmptyList@@@@@@@@@Z DD imagerel ??$map@V<lambda_34aff3510488d97e7cf1c072c51f11e0>@@PEBNNU?$List@U?$P@$0BA@$0CAA@@@U?$List@U?$P@$0BA@$00@@UEmptyList@@@@@@PEANNU?$List@U?$P@$0BA@$0BA@@@U?$List@U?$P@$0BA@$00@@UEmptyList@@@@@@@hof@@YAXV?$View@PEANNU?$List@U?$P@$0BA@$0BA@@@U?$List@U?$P@$0BA@$00@@UEmptyList@@@@@@@@V<lambda_34aff3510488d97e7cf1c072c51f11e0>@@V?$View@PEBNNU?$List@U?$P@$0BA@$0CAA@@@U?$List@U?$P@$0BA@$00@@UEmptyList@@@@@@@@@Z
	DD	imagerel ??$map@V<lambda_34aff3510488d97e7cf1c072c51f11e0>@@PEBNNU?$List@U?$P@$0BA@$0CAA@@@U?$List@U?$P@$0BA@$00@@UEmptyList@@@@@@PEANNU?$List@U?$P@$0BA@$0BA@@@U?$List@U?$P@$0BA@$00@@UEmptyList@@@@@@@hof@@YAXV?$View@PEANNU?$List@U?$P@$0BA@$0BA@@@U?$List@U?$P@$0BA@$00@@UEmptyList@@@@@@@@V<lambda_34aff3510488d97e7cf1c072c51f11e0>@@V?$View@PEBNNU?$List@U?$P@$0BA@$0CAA@@@U?$List@U?$P@$0BA@$00@@UEmptyList@@@@@@@@@Z+342
	DD	imagerel $unwind$??$map@V<lambda_34aff3510488d97e7cf1c072c51f11e0>@@PEBNNU?$List@U?$P@$0BA@$0CAA@@@U?$List@U?$P@$0BA@$00@@UEmptyList@@@@@@PEANNU?$List@U?$P@$0BA@$0BA@@@U?$List@U?$P@$0BA@$00@@UEmptyList@@@@@@@hof@@YAXV?$View@PEANNU?$List@U?$P@$0BA@$0BA@@@U?$List@U?$P@$0BA@$00@@UEmptyList@@@@@@@@V<lambda_34aff3510488d97e7cf1c072c51f11e0>@@V?$View@PEBNNU?$List@U?$P@$0BA@$0CAA@@@U?$List@U?$P@$0BA@$00@@UEmptyList@@@@@@@@@Z
pdata	ENDS
;	COMDAT pdata
pdata	SEGMENT
$pdata$??$?RV?$View@PEANNU?$List@U?$P@$0BA@$00@@UEmptyList@@@@@@V?$View@PEBNNU?$List@U?$P@$0BA@$00@@UEmptyList@@@@@@@<lambda_eb40f87bcb40b8de81a9cd57a38429ae>@@QEBAXV?$View@PEANNU?$List@U?$P@$0BA@$00@@UEmptyList@@@@@@V?$View@PEBNNU?$List@U?$P@$0BA@$00@@UEmptyList@@@@@@@Z DD imagerel ??$?RV?$View@PEANNU?$List@U?$P@$0BA@$00@@UEmptyList@@@@@@V?$View@PEBNNU?$List@U?$P@$0BA@$00@@UEmptyList@@@@@@@<lambda_eb40f87bcb40b8de81a9cd57a38429ae>@@QEBAXV?$View@PEANNU?$List@U?$P@$0BA@$00@@UEmptyList@@@@@@V?$View@PEBNNU?$List@U?$P@$0BA@$00@@UEmptyList@@@@@@@Z
	DD	imagerel ??$?RV?$View@PEANNU?$List@U?$P@$0BA@$00@@UEmptyList@@@@@@V?$View@PEBNNU?$List@U?$P@$0BA@$00@@UEmptyList@@@@@@@<lambda_eb40f87bcb40b8de81a9cd57a38429ae>@@QEBAXV?$View@PEANNU?$List@U?$P@$0BA@$00@@UEmptyList@@@@@@V?$View@PEBNNU?$List@U?$P@$0BA@$00@@UEmptyList@@@@@@@Z+230
	DD	imagerel $unwind$??$?RV?$View@PEANNU?$List@U?$P@$0BA@$00@@UEmptyList@@@@@@V?$View@PEBNNU?$List@U?$P@$0BA@$00@@UEmptyList@@@@@@@<lambda_eb40f87bcb40b8de81a9cd57a38429ae>@@QEBAXV?$View@PEANNU?$List@U?$P@$0BA@$00@@UEmptyList@@@@@@V?$View@PEBNNU?$List@U?$P@$0BA@$00@@UEmptyList@@@@@@@Z
pdata	ENDS
;	COMDAT pdata
pdata	SEGMENT
$pdata$??$map@V<lambda_eb40f87bcb40b8de81a9cd57a38429ae>@@PEBNNU?$List@U?$P@$0BA@$0CAA@@@U?$List@U?$P@$0BA@$00@@UEmptyList@@@@@@PEANNU2@@hof@@YAXV?$View@PEANNU?$List@U?$P@$0BA@$0CAA@@@U?$List@U?$P@$0BA@$00@@UEmptyList@@@@@@@@V<lambda_eb40f87bcb40b8de81a9cd57a38429ae>@@V?$View@PEBNNU?$List@U?$P@$0BA@$0CAA@@@U?$List@U?$P@$0BA@$00@@UEmptyList@@@@@@@@@Z DD imagerel ??$map@V<lambda_eb40f87bcb40b8de81a9cd57a38429ae>@@PEBNNU?$List@U?$P@$0BA@$0CAA@@@U?$List@U?$P@$0BA@$00@@UEmptyList@@@@@@PEANNU2@@hof@@YAXV?$View@PEANNU?$List@U?$P@$0BA@$0CAA@@@U?$List@U?$P@$0BA@$00@@UEmptyList@@@@@@@@V<lambda_eb40f87bcb40b8de81a9cd57a38429ae>@@V?$View@PEBNNU?$List@U?$P@$0BA@$0CAA@@@U?$List@U?$P@$0BA@$00@@UEmptyList@@@@@@@@@Z
	DD	imagerel ??$map@V<lambda_eb40f87bcb40b8de81a9cd57a38429ae>@@PEBNNU?$List@U?$P@$0BA@$0CAA@@@U?$List@U?$P@$0BA@$00@@UEmptyList@@@@@@PEANNU2@@hof@@YAXV?$View@PEANNU?$List@U?$P@$0BA@$0CAA@@@U?$List@U?$P@$0BA@$00@@UEmptyList@@@@@@@@V<lambda_eb40f87bcb40b8de81a9cd57a38429ae>@@V?$View@PEBNNU?$List@U?$P@$0BA@$0CAA@@@U?$List@U?$P@$0BA@$00@@UEmptyList@@@@@@@@@Z+314
	DD	imagerel $unwind$??$map@V<lambda_eb40f87bcb40b8de81a9cd57a38429ae>@@PEBNNU?$List@U?$P@$0BA@$0CAA@@@U?$List@U?$P@$0BA@$00@@UEmptyList@@@@@@PEANNU2@@hof@@YAXV?$View@PEANNU?$List@U?$P@$0BA@$0CAA@@@U?$List@U?$P@$0BA@$00@@UEmptyList@@@@@@@@V<lambda_eb40f87bcb40b8de81a9cd57a38429ae>@@V?$View@PEBNNU?$List@U?$P@$0BA@$0CAA@@@U?$List@U?$P@$0BA@$00@@UEmptyList@@@@@@@@@Z
pdata	ENDS
;	COMDAT pdata
pdata	SEGMENT
$pdata$??_G?$pair@V?$vector@NV?$allocator@N@std@@@std@@N@std@@QEAAPEAXI@Z DD imagerel $LN11
	DD	imagerel $LN11+23
	DD	imagerel $unwind$??_G?$pair@V?$vector@NV?$allocator@N@std@@@std@@N@std@@QEAAPEAXI@Z
pdata	ENDS
;	COMDAT pdata
pdata	SEGMENT
$pdata$??$_Ucopy@PEAN@?$vector@NV?$allocator@N@std@@@std@@AEAAPEANPEAN00@Z DD imagerel $LN26
	DD	imagerel $LN26+46
	DD	imagerel $unwind$??$_Ucopy@PEAN@?$vector@NV?$allocator@N@std@@@std@@AEAAPEANPEAN00@Z
pdata	ENDS
;	COMDAT pdata
pdata	SEGMENT
$pdata$??$_Zero_range@PEAN@std@@YAPEANPEAN0@Z DD imagerel $LN4
	DD	imagerel $LN4+31
	DD	imagerel $unwind$??$_Zero_range@PEAN@std@@YAPEANPEAN0@Z
pdata	ENDS
;	COMDAT pdata
pdata	SEGMENT
$pdata$??$_Uninitialized_copy@PEBU?$pair@V?$vector@NV?$allocator@N@std@@@std@@N@std@@PEAU12@V?$allocator@U?$pair@V?$vector@NV?$allocator@N@std@@@std@@N@std@@@2@@std@@YAPEAU?$pair@V?$vector@NV?$allocator@N@std@@@std@@N@0@PEBU10@0PEAU10@AEAV?$allocator@U?$pair@V?$vector@NV?$allocator@N@std@@@std@@N@std@@@0@@Z DD imagerel $LN17
	DD	imagerel $LN17+42
	DD	imagerel $unwind$??$_Uninitialized_copy@PEBU?$pair@V?$vector@NV?$allocator@N@std@@@std@@N@std@@PEAU12@V?$allocator@U?$pair@V?$vector@NV?$allocator@N@std@@@std@@N@std@@@2@@std@@YAPEAU?$pair@V?$vector@NV?$allocator@N@std@@@std@@N@0@PEBU10@0PEAU10@AEAV?$allocator@U?$pair@V?$vector@NV?$allocator@N@std@@@std@@N@std@@@0@@Z
pdata	ENDS
;	COMDAT pdata
pdata	SEGMENT
$pdata$??$?RV?$View@PEANNU?$List@U?$P@$0BA@$0CAA@@@U?$List@U?$P@$0BA@$00@@UEmptyList@@@@@@@@V0@V?$View@PEANNU?$List@U?$P@$0BA@$0BA@@@U?$List@U?$P@$0BA@$00@@UEmptyList@@@@@@@@@<lambda_82709c2af490acbaaecbe567606e69e8>@@QEBAXV?$View@PEANNU?$List@U?$P@$0BA@$0CAA@@@U?$List@U?$P@$0BA@$00@@UEmptyList@@@@@@@@0V?$View@PEANNU?$List@U?$P@$0BA@$0BA@@@U?$List@U?$P@$0BA@$00@@UEmptyList@@@@@@@@@Z DD imagerel ??$?RV?$View@PEANNU?$List@U?$P@$0BA@$0CAA@@@U?$List@U?$P@$0BA@$00@@UEmptyList@@@@@@@@V0@V?$View@PEANNU?$List@U?$P@$0BA@$0BA@@@U?$List@U?$P@$0BA@$00@@UEmptyList@@@@@@@@@<lambda_82709c2af490acbaaecbe567606e69e8>@@QEBAXV?$View@PEANNU?$List@U?$P@$0BA@$0CAA@@@U?$List@U?$P@$0BA@$00@@UEmptyList@@@@@@@@0V?$View@PEANNU?$List@U?$P@$0BA@$0BA@@@U?$List@U?$P@$0BA@$00@@UEmptyList@@@@@@@@@Z
	DD	imagerel ??$?RV?$View@PEANNU?$List@U?$P@$0BA@$0CAA@@@U?$List@U?$P@$0BA@$00@@UEmptyList@@@@@@@@V0@V?$View@PEANNU?$List@U?$P@$0BA@$0BA@@@U?$List@U?$P@$0BA@$00@@UEmptyList@@@@@@@@@<lambda_82709c2af490acbaaecbe567606e69e8>@@QEBAXV?$View@PEANNU?$List@U?$P@$0BA@$0CAA@@@U?$List@U?$P@$0BA@$00@@UEmptyList@@@@@@@@0V?$View@PEANNU?$List@U?$P@$0BA@$0BA@@@U?$List@U?$P@$0BA@$00@@UEmptyList@@@@@@@@@Z+206
	DD	imagerel $unwind$??$?RV?$View@PEANNU?$List@U?$P@$0BA@$0CAA@@@U?$List@U?$P@$0BA@$00@@UEmptyList@@@@@@@@V0@V?$View@PEANNU?$List@U?$P@$0BA@$0BA@@@U?$List@U?$P@$0BA@$00@@UEmptyList@@@@@@@@@<lambda_82709c2af490acbaaecbe567606e69e8>@@QEBAXV?$View@PEANNU?$List@U?$P@$0BA@$0CAA@@@U?$List@U?$P@$0BA@$00@@UEmptyList@@@@@@@@0V?$View@PEANNU?$List@U?$P@$0BA@$0BA@@@U?$List@U?$P@$0BA@$00@@UEmptyList@@@@@@@@@Z
pdata	ENDS
;	COMDAT pdata
pdata	SEGMENT
$pdata$??$?RV?$View@PEANNU?$List@U?$P@$0BA@$0BA@@@U?$List@U?$P@$0BA@$00@@UEmptyList@@@@@@@@V?$View@PEBNNU?$List@U?$P@$0BA@$0CAA@@@U?$List@U?$P@$0BA@$00@@UEmptyList@@@@@@@@V?$View@PEBNNU?$List@U?$P@$0BA@$00@@U?$List@U?$P@$0BA@$0CAA@@@UEmptyList@@@@@@@@@<lambda_7ef7f5917424a38ce3010ad89fbaf103>@@QEBAXV?$View@PEANNU?$List@U?$P@$0BA@$0BA@@@U?$List@U?$P@$0BA@$00@@UEmptyList@@@@@@@@V?$View@PEBNNU?$List@U?$P@$0BA@$0CAA@@@U?$List@U?$P@$0BA@$00@@UEmptyList@@@@@@@@V?$View@PEBNNU?$List@U?$P@$0BA@$00@@U?$List@U?$P@$0BA@$0CAA@@@UEmptyList@@@@@@@@@Z DD imagerel ??$?RV?$View@PEANNU?$List@U?$P@$0BA@$0BA@@@U?$List@U?$P@$0BA@$00@@UEmptyList@@@@@@@@V?$View@PEBNNU?$List@U?$P@$0BA@$0CAA@@@U?$List@U?$P@$0BA@$00@@UEmptyList@@@@@@@@V?$View@PEBNNU?$List@U?$P@$0BA@$00@@U?$List@U?$P@$0BA@$0CAA@@@UEmptyList@@@@@@@@@<lambda_7ef7f5917424a38ce3010ad89fbaf103>@@QEBAXV?$View@PEANNU?$List@U?$P@$0BA@$0BA@@@U?$List@U?$P@$0BA@$00@@UEmptyList@@@@@@@@V?$View@PEBNNU?$List@U?$P@$0BA@$0CAA@@@U?$List@U?$P@$0BA@$00@@UEmptyList@@@@@@@@V?$View@PEBNNU?$List@U?$P@$0BA@$00@@U?$List@U?$P@$0BA@$0CAA@@@UEmptyList@@@@@@@@@Z
	DD	imagerel ??$?RV?$View@PEANNU?$List@U?$P@$0BA@$0BA@@@U?$List@U?$P@$0BA@$00@@UEmptyList@@@@@@@@V?$View@PEBNNU?$List@U?$P@$0BA@$0CAA@@@U?$List@U?$P@$0BA@$00@@UEmptyList@@@@@@@@V?$View@PEBNNU?$List@U?$P@$0BA@$00@@U?$List@U?$P@$0BA@$0CAA@@@UEmptyList@@@@@@@@@<lambda_7ef7f5917424a38ce3010ad89fbaf103>@@QEBAXV?$View@PEANNU?$List@U?$P@$0BA@$0BA@@@U?$List@U?$P@$0BA@$00@@UEmptyList@@@@@@@@V?$View@PEBNNU?$List@U?$P@$0BA@$0CAA@@@U?$List@U?$P@$0BA@$00@@UEmptyList@@@@@@@@V?$View@PEBNNU?$List@U?$P@$0BA@$00@@U?$List@U?$P@$0BA@$0CAA@@@UEmptyList@@@@@@@@@Z+315
	DD	imagerel $unwind$??$?RV?$View@PEANNU?$List@U?$P@$0BA@$0BA@@@U?$List@U?$P@$0BA@$00@@UEmptyList@@@@@@@@V?$View@PEBNNU?$List@U?$P@$0BA@$0CAA@@@U?$List@U?$P@$0BA@$00@@UEmptyList@@@@@@@@V?$View@PEBNNU?$List@U?$P@$0BA@$00@@U?$List@U?$P@$0BA@$0CAA@@@UEmptyList@@@@@@@@@<lambda_7ef7f5917424a38ce3010ad89fbaf103>@@QEBAXV?$View@PEANNU?$List@U?$P@$0BA@$0BA@@@U?$List@U?$P@$0BA@$00@@UEmptyList@@@@@@@@V?$View@PEBNNU?$List@U?$P@$0BA@$0CAA@@@U?$List@U?$P@$0BA@$00@@UEmptyList@@@@@@@@V?$View@PEBNNU?$List@U?$P@$0BA@$00@@U?$List@U?$P@$0BA@$0CAA@@@UEmptyList@@@@@@@@@Z
pdata	ENDS
;	COMDAT pdata
pdata	SEGMENT
$pdata$??$?RV?$View@PEANNU?$List@U?$P@$0BA@$0CAA@@@U?$List@U?$P@$0BA@$00@@UEmptyList@@@@@@@@V?$View@PEBNNU?$List@U?$P@$0BA@$0CAA@@@U?$List@U?$P@$0BA@$00@@UEmptyList@@@@@@@@V?$View@PEBNNU?$List@U?$P@$0BA@$00@@U?$List@U?$P@$0BA@$0CAA@@@UEmptyList@@@@@@@@@<lambda_7ef7f5917424a38ce3010ad89fbaf103>@@QEBAXV?$View@PEANNU?$List@U?$P@$0BA@$0CAA@@@U?$List@U?$P@$0BA@$00@@UEmptyList@@@@@@@@V?$View@PEBNNU?$List@U?$P@$0BA@$0CAA@@@U?$List@U?$P@$0BA@$00@@UEmptyList@@@@@@@@V?$View@PEBNNU?$List@U?$P@$0BA@$00@@U?$List@U?$P@$0BA@$0CAA@@@UEmptyList@@@@@@@@@Z DD imagerel ??$?RV?$View@PEANNU?$List@U?$P@$0BA@$0CAA@@@U?$List@U?$P@$0BA@$00@@UEmptyList@@@@@@@@V?$View@PEBNNU?$List@U?$P@$0BA@$0CAA@@@U?$List@U?$P@$0BA@$00@@UEmptyList@@@@@@@@V?$View@PEBNNU?$List@U?$P@$0BA@$00@@U?$List@U?$P@$0BA@$0CAA@@@UEmptyList@@@@@@@@@<lambda_7ef7f5917424a38ce3010ad89fbaf103>@@QEBAXV?$View@PEANNU?$List@U?$P@$0BA@$0CAA@@@U?$List@U?$P@$0BA@$00@@UEmptyList@@@@@@@@V?$View@PEBNNU?$List@U?$P@$0BA@$0CAA@@@U?$List@U?$P@$0BA@$00@@UEmptyList@@@@@@@@V?$View@PEBNNU?$List@U?$P@$0BA@$00@@U?$List@U?$P@$0BA@$0CAA@@@UEmptyList@@@@@@@@@Z
	DD	imagerel ??$?RV?$View@PEANNU?$List@U?$P@$0BA@$0CAA@@@U?$List@U?$P@$0BA@$00@@UEmptyList@@@@@@@@V?$View@PEBNNU?$List@U?$P@$0BA@$0CAA@@@U?$List@U?$P@$0BA@$00@@UEmptyList@@@@@@@@V?$View@PEBNNU?$List@U?$P@$0BA@$00@@U?$List@U?$P@$0BA@$0CAA@@@UEmptyList@@@@@@@@@<lambda_7ef7f5917424a38ce3010ad89fbaf103>@@QEBAXV?$View@PEANNU?$List@U?$P@$0BA@$0CAA@@@U?$List@U?$P@$0BA@$00@@UEmptyList@@@@@@@@V?$View@PEBNNU?$List@U?$P@$0BA@$0CAA@@@U?$List@U?$P@$0BA@$00@@UEmptyList@@@@@@@@V?$View@PEBNNU?$List@U?$P@$0BA@$00@@U?$List@U?$P@$0BA@$0CAA@@@UEmptyList@@@@@@@@@Z+327
	DD	imagerel $unwind$??$?RV?$View@PEANNU?$List@U?$P@$0BA@$0CAA@@@U?$List@U?$P@$0BA@$00@@UEmptyList@@@@@@@@V?$View@PEBNNU?$List@U?$P@$0BA@$0CAA@@@U?$List@U?$P@$0BA@$00@@UEmptyList@@@@@@@@V?$View@PEBNNU?$List@U?$P@$0BA@$00@@U?$List@U?$P@$0BA@$0CAA@@@UEmptyList@@@@@@@@@<lambda_7ef7f5917424a38ce3010ad89fbaf103>@@QEBAXV?$View@PEANNU?$List@U?$P@$0BA@$0CAA@@@U?$List@U?$P@$0BA@$00@@UEmptyList@@@@@@@@V?$View@PEBNNU?$List@U?$P@$0BA@$0CAA@@@U?$List@U?$P@$0BA@$00@@UEmptyList@@@@@@@@V?$View@PEBNNU?$List@U?$P@$0BA@$00@@U?$List@U?$P@$0BA@$0CAA@@@UEmptyList@@@@@@@@@Z
pdata	ENDS
;	COMDAT pdata
pdata	SEGMENT
$pdata$??$rnz@V?$View@PEANNU?$List@U?$P@$0BA@$0CAA@@@U?$List@U?$P@$0BA@$00@@UEmptyList@@@@@@@@V?$View@PEANNU?$List@U?$P@$0BA@$0BA@@@U?$List@U?$P@$0BA@$00@@UEmptyList@@@@@@@@V<lambda_82709c2af490acbaaecbe567606e69e8>@@V<lambda_7ef7f5917424a38ce3010ad89fbaf103>@@PEBNNU?$List@U?$P@$0CA@$0BA@@@U?$List@U?$P@$0BA@$0CAA@@@U?$List@U?$P@$0BA@$00@@UEmptyList@@@@@@@@V?$View@PEBNNU?$List@U?$P@$0CA@$0CAAA@@@U?$List@U?$P@$0BA@$00@@U?$List@U?$P@$0BA@$0CAA@@@UEmptyList@@@@@@@@@@@hof@@YAXV?$View@PEANNU?$List@U?$P@$0BA@$0CAA@@@U?$List@U?$P@$0BA@$00@@UEmptyList@@@@@@@@V?$View@PEANNU?$List@U?$P@$0BA@$0BA@@@U?$List@U?$P@$0BA@$00@@UEmptyList@@@@@@@@V<lambda_82709c2af490acbaaecbe567606e69e8>@@V<lambda_7ef7f5917424a38ce3010ad89fbaf103>@@V?$View@PEBNNU?$List@U?$P@$0CA@$0BA@@@U?$List@U?$P@$0BA@$0CAA@@@U?$List@U?$P@$0BA@$00@@UEmptyList@@@@@@@@@@V?$View@PEBNNU?$List@U?$P@$0CA@$0CAAA@@@U?$List@U?$P@$0BA@$00@@U?$List@U?$P@$0BA@$0CAA@@@UEmptyList@@@@@@@@@@@Z DD imagerel ??$rnz@V?$View@PEANNU?$List@U?$P@$0BA@$0CAA@@@U?$List@U?$P@$0BA@$00@@UEmptyList@@@@@@@@V?$View@PEANNU?$List@U?$P@$0BA@$0BA@@@U?$List@U?$P@$0BA@$00@@UEmptyList@@@@@@@@V<lambda_82709c2af490acbaaecbe567606e69e8>@@V<lambda_7ef7f5917424a38ce3010ad89fbaf103>@@PEBNNU?$List@U?$P@$0CA@$0BA@@@U?$List@U?$P@$0BA@$0CAA@@@U?$List@U?$P@$0BA@$00@@UEmptyList@@@@@@@@V?$View@PEBNNU?$List@U?$P@$0CA@$0CAAA@@@U?$List@U?$P@$0BA@$00@@U?$List@U?$P@$0BA@$0CAA@@@UEmptyList@@@@@@@@@@@hof@@YAXV?$View@PEANNU?$List@U?$P@$0BA@$0CAA@@@U?$List@U?$P@$0BA@$00@@UEmptyList@@@@@@@@V?$View@PEANNU?$List@U?$P@$0BA@$0BA@@@U?$List@U?$P@$0BA@$00@@UEmptyList@@@@@@@@V<lambda_82709c2af490acbaaecbe567606e69e8>@@V<lambda_7ef7f5917424a38ce3010ad89fbaf103>@@V?$View@PEBNNU?$List@U?$P@$0CA@$0BA@@@U?$List@U?$P@$0BA@$0CAA@@@U?$List@U?$P@$0BA@$00@@UEmptyList@@@@@@@@@@V?$View@PEBNNU?$List@U?$P@$0CA@$0CAAA@@@U?$List@U?$P@$0BA@$00@@U?$List@U?$P@$0BA@$0CAA@@@UEmptyList@@@@@@@@@@@Z
	DD	imagerel ??$rnz@V?$View@PEANNU?$List@U?$P@$0BA@$0CAA@@@U?$List@U?$P@$0BA@$00@@UEmptyList@@@@@@@@V?$View@PEANNU?$List@U?$P@$0BA@$0BA@@@U?$List@U?$P@$0BA@$00@@UEmptyList@@@@@@@@V<lambda_82709c2af490acbaaecbe567606e69e8>@@V<lambda_7ef7f5917424a38ce3010ad89fbaf103>@@PEBNNU?$List@U?$P@$0CA@$0BA@@@U?$List@U?$P@$0BA@$0CAA@@@U?$List@U?$P@$0BA@$00@@UEmptyList@@@@@@@@V?$View@PEBNNU?$List@U?$P@$0CA@$0CAAA@@@U?$List@U?$P@$0BA@$00@@U?$List@U?$P@$0BA@$0CAA@@@UEmptyList@@@@@@@@@@@hof@@YAXV?$View@PEANNU?$List@U?$P@$0BA@$0CAA@@@U?$List@U?$P@$0BA@$00@@UEmptyList@@@@@@@@V?$View@PEANNU?$List@U?$P@$0BA@$0BA@@@U?$List@U?$P@$0BA@$00@@UEmptyList@@@@@@@@V<lambda_82709c2af490acbaaecbe567606e69e8>@@V<lambda_7ef7f5917424a38ce3010ad89fbaf103>@@V?$View@PEBNNU?$List@U?$P@$0CA@$0BA@@@U?$List@U?$P@$0BA@$0CAA@@@U?$List@U?$P@$0BA@$00@@UEmptyList@@@@@@@@@@V?$View@PEBNNU?$List@U?$P@$0CA@$0CAAA@@@U?$List@U?$P@$0BA@$00@@U?$List@U?$P@$0BA@$0CAA@@@UEmptyList@@@@@@@@@@@Z+770
	DD	imagerel $unwind$??$rnz@V?$View@PEANNU?$List@U?$P@$0BA@$0CAA@@@U?$List@U?$P@$0BA@$00@@UEmptyList@@@@@@@@V?$View@PEANNU?$List@U?$P@$0BA@$0BA@@@U?$List@U?$P@$0BA@$00@@UEmptyList@@@@@@@@V<lambda_82709c2af490acbaaecbe567606e69e8>@@V<lambda_7ef7f5917424a38ce3010ad89fbaf103>@@PEBNNU?$List@U?$P@$0CA@$0BA@@@U?$List@U?$P@$0BA@$0CAA@@@U?$List@U?$P@$0BA@$00@@UEmptyList@@@@@@@@V?$View@PEBNNU?$List@U?$P@$0CA@$0CAAA@@@U?$List@U?$P@$0BA@$00@@U?$List@U?$P@$0BA@$0CAA@@@UEmptyList@@@@@@@@@@@hof@@YAXV?$View@PEANNU?$List@U?$P@$0BA@$0CAA@@@U?$List@U?$P@$0BA@$00@@UEmptyList@@@@@@@@V?$View@PEANNU?$List@U?$P@$0BA@$0BA@@@U?$List@U?$P@$0BA@$00@@UEmptyList@@@@@@@@V<lambda_82709c2af490acbaaecbe567606e69e8>@@V<lambda_7ef7f5917424a38ce3010ad89fbaf103>@@V?$View@PEBNNU?$List@U?$P@$0CA@$0BA@@@U?$List@U?$P@$0BA@$0CAA@@@U?$List@U?$P@$0BA@$00@@UEmptyList@@@@@@@@@@V?$View@PEBNNU?$List@U?$P@$0CA@$0CAAA@@@U?$List@U?$P@$0BA@$00@@U?$List@U?$P@$0BA@$0CAA@@@UEmptyList@@@@@@@@@@@Z
pdata	ENDS
;	COMDAT pdata
pdata	SEGMENT
$pdata$??0?$vector@NV?$allocator@N@std@@@std@@QEAA@AEBV01@@Z DD imagerel $LN111
	DD	imagerel $LN111+59
	DD	imagerel $unwind$??0?$vector@NV?$allocator@N@std@@@std@@QEAA@AEBV01@@Z
pdata	ENDS
;	COMDAT pdata
pdata	SEGMENT
$pdata$0$??0?$vector@NV?$allocator@N@std@@@std@@QEAA@AEBV01@@Z DD imagerel $LN111+59
	DD	imagerel $LN111+92
	DD	imagerel $chain$0$??0?$vector@NV?$allocator@N@std@@@std@@QEAA@AEBV01@@Z
pdata	ENDS
;	COMDAT pdata
pdata	SEGMENT
$pdata$1$??0?$vector@NV?$allocator@N@std@@@std@@QEAA@AEBV01@@Z DD imagerel $LN111+92
	DD	imagerel $LN111+106
	DD	imagerel $chain$1$??0?$vector@NV?$allocator@N@std@@@std@@QEAA@AEBV01@@Z
pdata	ENDS
;	COMDAT pdata
pdata	SEGMENT
$pdata$??$_Destroy_range1@V?$allocator@U?$pair@V?$vector@NV?$allocator@N@std@@@std@@N@std@@@std@@@std@@YAXPEAU?$pair@V?$vector@NV?$allocator@N@std@@@std@@N@0@0AEAV?$allocator@U?$pair@V?$vector@NV?$allocator@N@std@@@std@@N@std@@@0@U?$integral_constant@_N$0A@@0@@Z DD imagerel $LN26
	DD	imagerel $LN26+49
	DD	imagerel $unwind$??$_Destroy_range1@V?$allocator@U?$pair@V?$vector@NV?$allocator@N@std@@@std@@N@std@@@std@@@std@@YAXPEAU?$pair@V?$vector@NV?$allocator@N@std@@@std@@N@0@0AEAV?$allocator@U?$pair@V?$vector@NV?$allocator@N@std@@@std@@N@std@@@0@U?$integral_constant@_N$0A@@0@@Z
pdata	ENDS
;	COMDAT pdata
pdata	SEGMENT
$pdata$??$_Uninitialized_value_construct_n1@PEAN_KV?$allocator@N@std@@@std@@YAPEANPEAN_KAEAV?$allocator@N@0@U?$integral_constant@_N$00@0@@Z DD imagerel $LN6
	DD	imagerel $LN6+46
	DD	imagerel $unwind$??$_Uninitialized_value_construct_n1@PEAN_KV?$allocator@N@std@@@std@@YAPEANPEAN_KAEAV?$allocator@N@0@U?$integral_constant@_N$00@0@@Z
pdata	ENDS
;	COMDAT pdata
pdata	SEGMENT
$pdata$??$_Ucopy@PEBU?$pair@V?$vector@NV?$allocator@N@std@@@std@@N@std@@@?$vector@U?$pair@V?$vector@NV?$allocator@N@std@@@std@@N@std@@V?$allocator@U?$pair@V?$vector@NV?$allocator@N@std@@@std@@N@std@@@2@@std@@AEAAPEAU?$pair@V?$vector@NV?$allocator@N@std@@@std@@N@1@PEBU21@0PEAU21@@Z DD imagerel $LN25
	DD	imagerel $LN25+26
	DD	imagerel $unwind$??$_Ucopy@PEBU?$pair@V?$vector@NV?$allocator@N@std@@@std@@N@std@@@?$vector@U?$pair@V?$vector@NV?$allocator@N@std@@@std@@N@std@@V?$allocator@U?$pair@V?$vector@NV?$allocator@N@std@@@std@@N@std@@@2@@std@@AEAAPEAU?$pair@V?$vector@NV?$allocator@N@std@@@std@@N@1@PEBU21@0PEAU21@@Z
pdata	ENDS
;	COMDAT pdata
pdata	SEGMENT
$pdata$??$?RV?$View@PEANNU?$List@U?$P@$0BA@$0CAA@@@U?$List@U?$P@$0BA@$00@@UEmptyList@@@@@@@@V?$View@PEBNNU?$List@U?$P@$0CA@$0CAAA@@@U?$List@U?$P@$0BA@$00@@U?$List@U?$P@$0BA@$0CAA@@@UEmptyList@@@@@@@@@@@<lambda_7e04991c64d89450a9afdec7af8092d1>@@QEBAXV?$View@PEANNU?$List@U?$P@$0BA@$0CAA@@@U?$List@U?$P@$0BA@$00@@UEmptyList@@@@@@@@V?$View@PEBNNU?$List@U?$P@$0CA@$0CAAA@@@U?$List@U?$P@$0BA@$00@@U?$List@U?$P@$0BA@$0CAA@@@UEmptyList@@@@@@@@@@@Z DD imagerel ??$?RV?$View@PEANNU?$List@U?$P@$0BA@$0CAA@@@U?$List@U?$P@$0BA@$00@@UEmptyList@@@@@@@@V?$View@PEBNNU?$List@U?$P@$0CA@$0CAAA@@@U?$List@U?$P@$0BA@$00@@U?$List@U?$P@$0BA@$0CAA@@@UEmptyList@@@@@@@@@@@<lambda_7e04991c64d89450a9afdec7af8092d1>@@QEBAXV?$View@PEANNU?$List@U?$P@$0BA@$0CAA@@@U?$List@U?$P@$0BA@$00@@UEmptyList@@@@@@@@V?$View@PEBNNU?$List@U?$P@$0CA@$0CAAA@@@U?$List@U?$P@$0BA@$00@@U?$List@U?$P@$0BA@$0CAA@@@UEmptyList@@@@@@@@@@@Z
	DD	imagerel ??$?RV?$View@PEANNU?$List@U?$P@$0BA@$0CAA@@@U?$List@U?$P@$0BA@$00@@UEmptyList@@@@@@@@V?$View@PEBNNU?$List@U?$P@$0CA@$0CAAA@@@U?$List@U?$P@$0BA@$00@@U?$List@U?$P@$0BA@$0CAA@@@UEmptyList@@@@@@@@@@@<lambda_7e04991c64d89450a9afdec7af8092d1>@@QEBAXV?$View@PEANNU?$List@U?$P@$0BA@$0CAA@@@U?$List@U?$P@$0BA@$00@@UEmptyList@@@@@@@@V?$View@PEBNNU?$List@U?$P@$0CA@$0CAAA@@@U?$List@U?$P@$0BA@$00@@U?$List@U?$P@$0BA@$0CAA@@@UEmptyList@@@@@@@@@@@Z+88
	DD	imagerel $unwind$??$?RV?$View@PEANNU?$List@U?$P@$0BA@$0CAA@@@U?$List@U?$P@$0BA@$00@@UEmptyList@@@@@@@@V?$View@PEBNNU?$List@U?$P@$0CA@$0CAAA@@@U?$List@U?$P@$0BA@$00@@U?$List@U?$P@$0BA@$0CAA@@@UEmptyList@@@@@@@@@@@<lambda_7e04991c64d89450a9afdec7af8092d1>@@QEBAXV?$View@PEANNU?$List@U?$P@$0BA@$0CAA@@@U?$List@U?$P@$0BA@$00@@UEmptyList@@@@@@@@V?$View@PEBNNU?$List@U?$P@$0CA@$0CAAA@@@U?$List@U?$P@$0BA@$00@@U?$List@U?$P@$0BA@$0CAA@@@UEmptyList@@@@@@@@@@@Z
pdata	ENDS
;	COMDAT pdata
pdata	SEGMENT
$pdata$??$map@V<lambda_7e04991c64d89450a9afdec7af8092d1>@@PEBNNU?$List@U?$P@$0CA@$0BA@@@U?$List@U?$P@$0CA@$0CAAA@@@U?$List@U?$P@$0BA@$00@@U?$List@U?$P@$0BA@$0CAA@@@UEmptyList@@@@@@@@@@PEANNU?$List@U?$P@$0CA@$0BA@@@U?$List@U?$P@$0BA@$0CAA@@@U?$List@U?$P@$0BA@$00@@UEmptyList@@@@@@@@@hof@@YAXV?$View@PEANNU?$List@U?$P@$0CA@$0BA@@@U?$List@U?$P@$0BA@$0CAA@@@U?$List@U?$P@$0BA@$00@@UEmptyList@@@@@@@@@@V<lambda_7e04991c64d89450a9afdec7af8092d1>@@V?$View@PEBNNU?$List@U?$P@$0CA@$0BA@@@U?$List@U?$P@$0CA@$0CAAA@@@U?$List@U?$P@$0BA@$00@@U?$List@U?$P@$0BA@$0CAA@@@UEmptyList@@@@@@@@@@@@@Z DD imagerel ??$map@V<lambda_7e04991c64d89450a9afdec7af8092d1>@@PEBNNU?$List@U?$P@$0CA@$0BA@@@U?$List@U?$P@$0CA@$0CAAA@@@U?$List@U?$P@$0BA@$00@@U?$List@U?$P@$0BA@$0CAA@@@UEmptyList@@@@@@@@@@PEANNU?$List@U?$P@$0CA@$0BA@@@U?$List@U?$P@$0BA@$0CAA@@@U?$List@U?$P@$0BA@$00@@UEmptyList@@@@@@@@@hof@@YAXV?$View@PEANNU?$List@U?$P@$0CA@$0BA@@@U?$List@U?$P@$0BA@$0CAA@@@U?$List@U?$P@$0BA@$00@@UEmptyList@@@@@@@@@@V<lambda_7e04991c64d89450a9afdec7af8092d1>@@V?$View@PEBNNU?$List@U?$P@$0CA@$0BA@@@U?$List@U?$P@$0CA@$0CAAA@@@U?$List@U?$P@$0BA@$00@@U?$List@U?$P@$0BA@$0CAA@@@UEmptyList@@@@@@@@@@@@@Z
	DD	imagerel ??$map@V<lambda_7e04991c64d89450a9afdec7af8092d1>@@PEBNNU?$List@U?$P@$0CA@$0BA@@@U?$List@U?$P@$0CA@$0CAAA@@@U?$List@U?$P@$0BA@$00@@U?$List@U?$P@$0BA@$0CAA@@@UEmptyList@@@@@@@@@@PEANNU?$List@U?$P@$0CA@$0BA@@@U?$List@U?$P@$0BA@$0CAA@@@U?$List@U?$P@$0BA@$00@@UEmptyList@@@@@@@@@hof@@YAXV?$View@PEANNU?$List@U?$P@$0CA@$0BA@@@U?$List@U?$P@$0BA@$0CAA@@@U?$List@U?$P@$0BA@$00@@UEmptyList@@@@@@@@@@V<lambda_7e04991c64d89450a9afdec7af8092d1>@@V?$View@PEBNNU?$List@U?$P@$0CA@$0BA@@@U?$List@U?$P@$0CA@$0CAAA@@@U?$List@U?$P@$0BA@$00@@U?$List@U?$P@$0BA@$0CAA@@@UEmptyList@@@@@@@@@@@@@Z+221
	DD	imagerel $unwind$??$map@V<lambda_7e04991c64d89450a9afdec7af8092d1>@@PEBNNU?$List@U?$P@$0CA@$0BA@@@U?$List@U?$P@$0CA@$0CAAA@@@U?$List@U?$P@$0BA@$00@@U?$List@U?$P@$0BA@$0CAA@@@UEmptyList@@@@@@@@@@PEANNU?$List@U?$P@$0CA@$0BA@@@U?$List@U?$P@$0BA@$0CAA@@@U?$List@U?$P@$0BA@$00@@UEmptyList@@@@@@@@@hof@@YAXV?$View@PEANNU?$List@U?$P@$0CA@$0BA@@@U?$List@U?$P@$0BA@$0CAA@@@U?$List@U?$P@$0BA@$00@@UEmptyList@@@@@@@@@@V<lambda_7e04991c64d89450a9afdec7af8092d1>@@V?$View@PEBNNU?$List@U?$P@$0CA@$0BA@@@U?$List@U?$P@$0CA@$0CAAA@@@U?$List@U?$P@$0BA@$00@@U?$List@U?$P@$0BA@$0CAA@@@UEmptyList@@@@@@@@@@@@@Z
pdata	ENDS
;	COMDAT pdata
pdata	SEGMENT
$pdata$??$?0AEAV?$vector@NV?$allocator@N@std@@@std@@NX$0A@@?$pair@V?$vector@NV?$allocator@N@std@@@std@@N@std@@QEAA@AEAV?$vector@NV?$allocator@N@std@@@1@$$QEAN@Z DD imagerel $LN11
	DD	imagerel $LN11+42
	DD	imagerel $unwind$??$?0AEAV?$vector@NV?$allocator@N@std@@@std@@NX$0A@@?$pair@V?$vector@NV?$allocator@N@std@@@std@@N@std@@QEAA@AEAV?$vector@NV?$allocator@N@std@@@1@$$QEAN@Z
pdata	ENDS
;	COMDAT pdata
pdata	SEGMENT
$pdata$??$_Insert_string@DU?$char_traits@D@std@@_K@std@@YAAEAV?$basic_ostream@DU?$char_traits@D@std@@@0@AEAV10@QEBD_K@Z DD imagerel $LN111
	DD	imagerel $LN111+460
	DD	imagerel $unwind$??$_Insert_string@DU?$char_traits@D@std@@_K@std@@YAAEAV?$basic_ostream@DU?$char_traits@D@std@@@0@AEAV10@QEBD_K@Z
pdata	ENDS
;	COMDAT pdata
pdata	SEGMENT
$pdata$?catch$8@?0???$_Insert_string@DU?$char_traits@D@std@@_K@std@@YAAEAV?$basic_ostream@DU?$char_traits@D@std@@@0@AEAV10@QEBD_K@Z@4HA DD imagerel ?catch$8@?0???$_Insert_string@DU?$char_traits@D@std@@_K@std@@YAAEAV?$basic_ostream@DU?$char_traits@D@std@@@0@AEAV10@QEBD_K@Z@4HA
	DD	imagerel ?catch$8@?0???$_Insert_string@DU?$char_traits@D@std@@_K@std@@YAAEAV?$basic_ostream@DU?$char_traits@D@std@@@0@AEAV10@QEBD_K@Z@4HA+56
	DD	imagerel $unwind$?catch$8@?0???$_Insert_string@DU?$char_traits@D@std@@_K@std@@YAAEAV?$basic_ostream@DU?$char_traits@D@std@@@0@AEAV10@QEBD_K@Z@4HA
pdata	ENDS
;	COMDAT pdata
pdata	SEGMENT
$pdata$?allocate@?$allocator@U?$pair@V?$vector@NV?$allocator@N@std@@@std@@N@std@@@std@@QEAAPEAU?$pair@V?$vector@NV?$allocator@N@std@@@std@@N@2@_K@Z DD imagerel $LN14
	DD	imagerel $LN14+110
	DD	imagerel $unwind$?allocate@?$allocator@U?$pair@V?$vector@NV?$allocator@N@std@@@std@@N@std@@@std@@QEAAPEAU?$pair@V?$vector@NV?$allocator@N@std@@@std@@N@2@_K@Z
pdata	ENDS
;	COMDAT pdata
pdata	SEGMENT
$pdata$?_Xlength@?$vector@U?$pair@V?$vector@NV?$allocator@N@std@@@std@@N@std@@V?$allocator@U?$pair@V?$vector@NV?$allocator@N@std@@@std@@N@std@@@2@@std@@CAXXZ DD imagerel $LN4
	DD	imagerel $LN4+18
	DD	imagerel $unwind$?_Xlength@?$vector@U?$pair@V?$vector@NV?$allocator@N@std@@@std@@N@std@@V?$allocator@U?$pair@V?$vector@NV?$allocator@N@std@@@std@@N@std@@@2@@std@@CAXXZ
pdata	ENDS
;	COMDAT pdata
pdata	SEGMENT
$pdata$?_Buy@?$vector@U?$pair@V?$vector@NV?$allocator@N@std@@@std@@N@std@@V?$allocator@U?$pair@V?$vector@NV?$allocator@N@std@@@std@@N@std@@@2@@std@@AEAA_N_K@Z DD imagerel $LN116
	DD	imagerel $LN116+145
	DD	imagerel $unwind$?_Buy@?$vector@U?$pair@V?$vector@NV?$allocator@N@std@@@std@@N@std@@V?$allocator@U?$pair@V?$vector@NV?$allocator@N@std@@@std@@N@std@@@2@@std@@AEAA_N_K@Z
pdata	ENDS
;	COMDAT pdata
pdata	SEGMENT
$pdata$??$_Destroy_range@V?$allocator@U?$pair@V?$vector@NV?$allocator@N@std@@@std@@N@std@@@std@@@std@@YAXPEAU?$pair@V?$vector@NV?$allocator@N@std@@@std@@N@0@0AEAV?$allocator@U?$pair@V?$vector@NV?$allocator@N@std@@@std@@N@std@@@0@@Z DD imagerel $LN28
	DD	imagerel $LN28+49
	DD	imagerel $unwind$??$_Destroy_range@V?$allocator@U?$pair@V?$vector@NV?$allocator@N@std@@@std@@N@std@@@std@@@std@@YAXPEAU?$pair@V?$vector@NV?$allocator@N@std@@@std@@N@0@0AEAV?$allocator@U?$pair@V?$vector@NV?$allocator@N@std@@@std@@N@std@@@0@@Z
pdata	ENDS
;	COMDAT pdata
pdata	SEGMENT
$pdata$??$_Uninitialized_value_construct_n@PEAN_KV?$allocator@N@std@@@std@@YAPEANPEAN_KAEAV?$allocator@N@0@@Z DD imagerel $LN8
	DD	imagerel $LN8+46
	DD	imagerel $unwind$??$_Uninitialized_value_construct_n@PEAN_KV?$allocator@N@std@@@std@@YAPEANPEAN_KAEAV?$allocator@N@0@@Z
pdata	ENDS
;	COMDAT pdata
pdata	SEGMENT
$pdata$??$_Range_construct_or_tidy@PEBU?$pair@V?$vector@NV?$allocator@N@std@@@std@@N@std@@@?$vector@U?$pair@V?$vector@NV?$allocator@N@std@@@std@@N@std@@V?$allocator@U?$pair@V?$vector@NV?$allocator@N@std@@@std@@N@std@@@2@@std@@AEAAXPEBU?$pair@V?$vector@NV?$allocator@N@std@@@std@@N@1@0Uforward_iterator_tag@1@@Z DD imagerel $LN171
	DD	imagerel $LN171+194
	DD	imagerel $unwind$??$_Range_construct_or_tidy@PEBU?$pair@V?$vector@NV?$allocator@N@std@@@std@@N@std@@@?$vector@U?$pair@V?$vector@NV?$allocator@N@std@@@std@@N@std@@V?$allocator@U?$pair@V?$vector@NV?$allocator@N@std@@@std@@N@std@@@2@@std@@AEAAXPEBU?$pair@V?$vector@NV?$allocator@N@std@@@std@@N@1@0Uforward_iterator_tag@1@@Z
pdata	ENDS
;	COMDAT pdata
pdata	SEGMENT
$pdata$?catch$41@?0???$_Range_construct_or_tidy@PEBU?$pair@V?$vector@NV?$allocator@N@std@@@std@@N@std@@@?$vector@U?$pair@V?$vector@NV?$allocator@N@std@@@std@@N@std@@V?$allocator@U?$pair@V?$vector@NV?$allocator@N@std@@@std@@N@std@@@2@@std@@AEAAXPEBU?$pair@V?$vector@NV?$allocator@N@std@@@std@@N@1@0Uforward_iterator_tag@1@@Z@4HA DD imagerel ?catch$41@?0???$_Range_construct_or_tidy@PEBU?$pair@V?$vector@NV?$allocator@N@std@@@std@@N@std@@@?$vector@U?$pair@V?$vector@NV?$allocator@N@std@@@std@@N@std@@V?$allocator@U?$pair@V?$vector@NV?$allocator@N@std@@@std@@N@std@@@2@@std@@AEAAXPEBU?$pair@V?$vector@NV?$allocator@N@std@@@std@@N@1@0Uforward_iterator_tag@1@@Z@4HA
	DD	imagerel ?catch$41@?0???$_Range_construct_or_tidy@PEBU?$pair@V?$vector@NV?$allocator@N@std@@@std@@N@std@@@?$vector@U?$pair@V?$vector@NV?$allocator@N@std@@@std@@N@std@@V?$allocator@U?$pair@V?$vector@NV?$allocator@N@std@@@std@@N@std@@@2@@std@@AEAAXPEBU?$pair@V?$vector@NV?$allocator@N@std@@@std@@N@1@0Uforward_iterator_tag@1@@Z@4HA+32
	DD	imagerel $unwind$?catch$41@?0???$_Range_construct_or_tidy@PEBU?$pair@V?$vector@NV?$allocator@N@std@@@std@@N@std@@@?$vector@U?$pair@V?$vector@NV?$allocator@N@std@@@std@@N@std@@V?$allocator@U?$pair@V?$vector@NV?$allocator@N@std@@@std@@N@std@@@2@@std@@AEAAXPEBU?$pair@V?$vector@NV?$allocator@N@std@@@std@@N@1@0Uforward_iterator_tag@1@@Z@4HA
pdata	ENDS
;	COMDAT pdata
pdata	SEGMENT
$pdata$??$?RV?$View@PEANNU?$List@U?$P@$0CA@$0BA@@@U?$List@U?$P@$0BA@$0CAA@@@U?$List@U?$P@$0BA@$00@@UEmptyList@@@@@@@@@@V?$View@PEBNNU?$List@U?$P@$0CA@$0BA@@@U?$List@U?$P@$0BA@$0CAA@@@U?$List@U?$P@$0BA@$00@@UEmptyList@@@@@@@@@@@<lambda_d96185b9da9a7d2086bd47349d2635dc>@@QEBAXV?$View@PEANNU?$List@U?$P@$0CA@$0BA@@@U?$List@U?$P@$0BA@$0CAA@@@U?$List@U?$P@$0BA@$00@@UEmptyList@@@@@@@@@@V?$View@PEBNNU?$List@U?$P@$0CA@$0BA@@@U?$List@U?$P@$0BA@$0CAA@@@U?$List@U?$P@$0BA@$00@@UEmptyList@@@@@@@@@@@Z DD imagerel ??$?RV?$View@PEANNU?$List@U?$P@$0CA@$0BA@@@U?$List@U?$P@$0BA@$0CAA@@@U?$List@U?$P@$0BA@$00@@UEmptyList@@@@@@@@@@V?$View@PEBNNU?$List@U?$P@$0CA@$0BA@@@U?$List@U?$P@$0BA@$0CAA@@@U?$List@U?$P@$0BA@$00@@UEmptyList@@@@@@@@@@@<lambda_d96185b9da9a7d2086bd47349d2635dc>@@QEBAXV?$View@PEANNU?$List@U?$P@$0CA@$0BA@@@U?$List@U?$P@$0BA@$0CAA@@@U?$List@U?$P@$0BA@$00@@UEmptyList@@@@@@@@@@V?$View@PEBNNU?$List@U?$P@$0CA@$0BA@@@U?$List@U?$P@$0BA@$0CAA@@@U?$List@U?$P@$0BA@$00@@UEmptyList@@@@@@@@@@@Z
	DD	imagerel ??$?RV?$View@PEANNU?$List@U?$P@$0CA@$0BA@@@U?$List@U?$P@$0BA@$0CAA@@@U?$List@U?$P@$0BA@$00@@UEmptyList@@@@@@@@@@V?$View@PEBNNU?$List@U?$P@$0CA@$0BA@@@U?$List@U?$P@$0BA@$0CAA@@@U?$List@U?$P@$0BA@$00@@UEmptyList@@@@@@@@@@@<lambda_d96185b9da9a7d2086bd47349d2635dc>@@QEBAXV?$View@PEANNU?$List@U?$P@$0CA@$0BA@@@U?$List@U?$P@$0BA@$0CAA@@@U?$List@U?$P@$0BA@$00@@UEmptyList@@@@@@@@@@V?$View@PEBNNU?$List@U?$P@$0CA@$0BA@@@U?$List@U?$P@$0BA@$0CAA@@@U?$List@U?$P@$0BA@$00@@UEmptyList@@@@@@@@@@@Z+233
	DD	imagerel $unwind$??$?RV?$View@PEANNU?$List@U?$P@$0CA@$0BA@@@U?$List@U?$P@$0BA@$0CAA@@@U?$List@U?$P@$0BA@$00@@UEmptyList@@@@@@@@@@V?$View@PEBNNU?$List@U?$P@$0CA@$0BA@@@U?$List@U?$P@$0BA@$0CAA@@@U?$List@U?$P@$0BA@$00@@UEmptyList@@@@@@@@@@@<lambda_d96185b9da9a7d2086bd47349d2635dc>@@QEBAXV?$View@PEANNU?$List@U?$P@$0CA@$0BA@@@U?$List@U?$P@$0BA@$0CAA@@@U?$List@U?$P@$0BA@$00@@UEmptyList@@@@@@@@@@V?$View@PEBNNU?$List@U?$P@$0CA@$0BA@@@U?$List@U?$P@$0BA@$0CAA@@@U?$List@U?$P@$0BA@$00@@UEmptyList@@@@@@@@@@@Z
pdata	ENDS
;	COMDAT pdata
pdata	SEGMENT
$pdata$??$map@V<lambda_d96185b9da9a7d2086bd47349d2635dc>@@PEBNNU?$List@U?$P@$0CA@$0CAAA@@@U?$List@U?$P@$0CA@$0BA@@@U?$List@U?$P@$0BA@$0CAA@@@U?$List@U?$P@$0BA@$00@@UEmptyList@@@@@@@@@@PEANNU2@@hof@@YAXV?$View@PEANNU?$List@U?$P@$0CA@$0CAAA@@@U?$List@U?$P@$0CA@$0BA@@@U?$List@U?$P@$0BA@$0CAA@@@U?$List@U?$P@$0BA@$00@@UEmptyList@@@@@@@@@@@@V<lambda_d96185b9da9a7d2086bd47349d2635dc>@@V?$View@PEBNNU?$List@U?$P@$0CA@$0CAAA@@@U?$List@U?$P@$0CA@$0BA@@@U?$List@U?$P@$0BA@$0CAA@@@U?$List@U?$P@$0BA@$00@@UEmptyList@@@@@@@@@@@@@Z DD imagerel ??$map@V<lambda_d96185b9da9a7d2086bd47349d2635dc>@@PEBNNU?$List@U?$P@$0CA@$0CAAA@@@U?$List@U?$P@$0CA@$0BA@@@U?$List@U?$P@$0BA@$0CAA@@@U?$List@U?$P@$0BA@$00@@UEmptyList@@@@@@@@@@PEANNU2@@hof@@YAXV?$View@PEANNU?$List@U?$P@$0CA@$0CAAA@@@U?$List@U?$P@$0CA@$0BA@@@U?$List@U?$P@$0BA@$0CAA@@@U?$List@U?$P@$0BA@$00@@UEmptyList@@@@@@@@@@@@V<lambda_d96185b9da9a7d2086bd47349d2635dc>@@V?$View@PEBNNU?$List@U?$P@$0CA@$0CAAA@@@U?$List@U?$P@$0CA@$0BA@@@U?$List@U?$P@$0BA@$0CAA@@@U?$List@U?$P@$0BA@$00@@UEmptyList@@@@@@@@@@@@@Z
	DD	imagerel ??$map@V<lambda_d96185b9da9a7d2086bd47349d2635dc>@@PEBNNU?$List@U?$P@$0CA@$0CAAA@@@U?$List@U?$P@$0CA@$0BA@@@U?$List@U?$P@$0BA@$0CAA@@@U?$List@U?$P@$0BA@$00@@UEmptyList@@@@@@@@@@PEANNU2@@hof@@YAXV?$View@PEANNU?$List@U?$P@$0CA@$0CAAA@@@U?$List@U?$P@$0CA@$0BA@@@U?$List@U?$P@$0BA@$0CAA@@@U?$List@U?$P@$0BA@$00@@UEmptyList@@@@@@@@@@@@V<lambda_d96185b9da9a7d2086bd47349d2635dc>@@V?$View@PEBNNU?$List@U?$P@$0CA@$0CAAA@@@U?$List@U?$P@$0CA@$0BA@@@U?$List@U?$P@$0BA@$0CAA@@@U?$List@U?$P@$0BA@$00@@UEmptyList@@@@@@@@@@@@@Z+326
	DD	imagerel $unwind$??$map@V<lambda_d96185b9da9a7d2086bd47349d2635dc>@@PEBNNU?$List@U?$P@$0CA@$0CAAA@@@U?$List@U?$P@$0CA@$0BA@@@U?$List@U?$P@$0BA@$0CAA@@@U?$List@U?$P@$0BA@$00@@UEmptyList@@@@@@@@@@PEANNU2@@hof@@YAXV?$View@PEANNU?$List@U?$P@$0CA@$0CAAA@@@U?$List@U?$P@$0CA@$0BA@@@U?$List@U?$P@$0BA@$0CAA@@@U?$List@U?$P@$0BA@$00@@UEmptyList@@@@@@@@@@@@V<lambda_d96185b9da9a7d2086bd47349d2635dc>@@V?$View@PEBNNU?$List@U?$P@$0CA@$0CAAA@@@U?$List@U?$P@$0CA@$0BA@@@U?$List@U?$P@$0BA@$0CAA@@@U?$List@U?$P@$0BA@$00@@UEmptyList@@@@@@@@@@@@@Z
pdata	ENDS
;	COMDAT pdata
pdata	SEGMENT
$pdata$??$make_pair@AEAV?$vector@NV?$allocator@N@std@@@std@@N@std@@YA?AU?$pair@V?$vector@NV?$allocator@N@std@@@std@@N@0@AEAV?$vector@NV?$allocator@N@std@@@0@$$QEAN@Z DD imagerel $LN21
	DD	imagerel $LN21+42
	DD	imagerel $unwind$??$make_pair@AEAV?$vector@NV?$allocator@N@std@@@std@@N@std@@YA?AU?$pair@V?$vector@NV?$allocator@N@std@@@std@@N@0@AEAV?$vector@NV?$allocator@N@std@@@0@$$QEAN@Z
pdata	ENDS
;	COMDAT pdata
pdata	SEGMENT
$pdata$?deallocate@?$allocator@N@std@@QEAAXQEAN_K@Z DD imagerel $LN20
	DD	imagerel $LN20+84
	DD	imagerel $unwind$?deallocate@?$allocator@N@std@@QEAAXQEAN_K@Z
pdata	ENDS
;	COMDAT pdata
pdata	SEGMENT
$pdata$?allocate@?$allocator@N@std@@QEAAPEAN_K@Z DD imagerel $LN14
	DD	imagerel $LN14+114
	DD	imagerel $unwind$?allocate@?$allocator@N@std@@QEAAPEAN_K@Z
pdata	ENDS
;	COMDAT pdata
pdata	SEGMENT
$pdata$?_Xlength@?$vector@NV?$allocator@N@std@@@std@@CAXXZ DD imagerel $LN4
	DD	imagerel $LN4+18
	DD	imagerel $unwind$?_Xlength@?$vector@NV?$allocator@N@std@@@std@@CAXXZ
pdata	ENDS
;	COMDAT pdata
pdata	SEGMENT
$pdata$?deallocate@?$allocator@U?$pair@V?$vector@NV?$allocator@N@std@@@std@@N@std@@@std@@QEAAXQEAU?$pair@V?$vector@NV?$allocator@N@std@@@std@@N@2@_K@Z DD imagerel $LN20
	DD	imagerel $LN20+81
	DD	imagerel $unwind$?deallocate@?$allocator@U?$pair@V?$vector@NV?$allocator@N@std@@@std@@N@std@@@std@@QEAAXQEAU?$pair@V?$vector@NV?$allocator@N@std@@@std@@N@2@_K@Z
pdata	ENDS
;	COMDAT pdata
pdata	SEGMENT
$pdata$?_Destroy@?$vector@U?$pair@V?$vector@NV?$allocator@N@std@@@std@@N@std@@V?$allocator@U?$pair@V?$vector@NV?$allocator@N@std@@@std@@N@std@@@2@@std@@AEAAXPEAU?$pair@V?$vector@NV?$allocator@N@std@@@std@@N@2@0@Z DD imagerel $LN36
	DD	imagerel $LN36+49
	DD	imagerel $unwind$?_Destroy@?$vector@U?$pair@V?$vector@NV?$allocator@N@std@@@std@@N@std@@V?$allocator@U?$pair@V?$vector@NV?$allocator@N@std@@@std@@N@std@@@2@@std@@AEAAXPEAU?$pair@V?$vector@NV?$allocator@N@std@@@std@@N@2@0@Z
pdata	ENDS
;	COMDAT pdata
pdata	SEGMENT
$pdata$??0_Sentry_base@?$basic_ostream@DU?$char_traits@D@std@@@std@@QEAA@AEAV12@@Z DD imagerel $LN10
	DD	imagerel $LN10+44
	DD	imagerel $unwind$??0_Sentry_base@?$basic_ostream@DU?$char_traits@D@std@@@std@@QEAA@AEAV12@@Z
pdata	ENDS
;	COMDAT pdata
pdata	SEGMENT
$pdata$??1_Sentry_base@?$basic_ostream@DU?$char_traits@D@std@@@std@@QEAA@XZ DD imagerel $LN8
	DD	imagerel $LN8+45
	DD	imagerel $unwind$??1_Sentry_base@?$basic_ostream@DU?$char_traits@D@std@@@std@@QEAA@XZ
pdata	ENDS
;	COMDAT pdata
pdata	SEGMENT
$pdata$?_Udefault@?$vector@NV?$allocator@N@std@@@std@@AEAAPEANPEAN_K@Z DD imagerel $LN16
	DD	imagerel $LN16+49
	DD	imagerel $unwind$?_Udefault@?$vector@NV?$allocator@N@std@@@std@@AEAAPEANPEAN_K@Z
pdata	ENDS
;	COMDAT pdata
pdata	SEGMENT
$pdata$?_Buy@?$vector@NV?$allocator@N@std@@@std@@AEAA_N_K@Z DD imagerel $LN117
	DD	imagerel $LN117+42
	DD	imagerel $unwind$?_Buy@?$vector@NV?$allocator@N@std@@@std@@AEAA_N_K@Z
pdata	ENDS
;	COMDAT pdata
pdata	SEGMENT
$pdata$0$?_Buy@?$vector@NV?$allocator@N@std@@@std@@AEAA_N_K@Z DD imagerel $LN117+42
	DD	imagerel $LN117+135
	DD	imagerel $chain$0$?_Buy@?$vector@NV?$allocator@N@std@@@std@@AEAA_N_K@Z
pdata	ENDS
;	COMDAT pdata
pdata	SEGMENT
$pdata$1$?_Buy@?$vector@NV?$allocator@N@std@@@std@@AEAA_N_K@Z DD imagerel $LN117+135
	DD	imagerel $LN117+147
	DD	imagerel $chain$1$?_Buy@?$vector@NV?$allocator@N@std@@@std@@AEAA_N_K@Z
pdata	ENDS
;	COMDAT pdata
pdata	SEGMENT
$pdata$?_Tidy@?$vector@NV?$allocator@N@std@@@std@@AEAAXXZ DD imagerel $LN114
	DD	imagerel $LN114+120
	DD	imagerel $unwind$?_Tidy@?$vector@NV?$allocator@N@std@@@std@@AEAAXXZ
pdata	ENDS
;	COMDAT pdata
pdata	SEGMENT
$pdata$?_Tidy@?$vector@U?$pair@V?$vector@NV?$allocator@N@std@@@std@@N@std@@V?$allocator@U?$pair@V?$vector@NV?$allocator@N@std@@@std@@N@std@@@2@@std@@AEAAXXZ DD imagerel $LN147
	DD	imagerel $LN147+21
	DD	imagerel $unwind$?_Tidy@?$vector@U?$pair@V?$vector@NV?$allocator@N@std@@@std@@N@std@@V?$allocator@U?$pair@V?$vector@NV?$allocator@N@std@@@std@@N@std@@@2@@std@@AEAAXXZ
pdata	ENDS
;	COMDAT pdata
pdata	SEGMENT
$pdata$0$?_Tidy@?$vector@U?$pair@V?$vector@NV?$allocator@N@std@@@std@@N@std@@V?$allocator@U?$pair@V?$vector@NV?$allocator@N@std@@@std@@N@std@@@2@@std@@AEAAXXZ DD imagerel $LN147+21
	DD	imagerel $LN147+86
	DD	imagerel $chain$0$?_Tidy@?$vector@U?$pair@V?$vector@NV?$allocator@N@std@@@std@@N@std@@V?$allocator@U?$pair@V?$vector@NV?$allocator@N@std@@@std@@N@std@@@2@@std@@AEAAXXZ
pdata	ENDS
;	COMDAT pdata
pdata	SEGMENT
$pdata$1$?_Tidy@?$vector@U?$pair@V?$vector@NV?$allocator@N@std@@@std@@N@std@@V?$allocator@U?$pair@V?$vector@NV?$allocator@N@std@@@std@@N@std@@@2@@std@@AEAAXXZ DD imagerel $LN147+86
	DD	imagerel $LN147+164
	DD	imagerel $chain$1$?_Tidy@?$vector@U?$pair@V?$vector@NV?$allocator@N@std@@@std@@N@std@@V?$allocator@U?$pair@V?$vector@NV?$allocator@N@std@@@std@@N@std@@@2@@std@@AEAAXXZ
pdata	ENDS
;	COMDAT pdata
pdata	SEGMENT
$pdata$?_Xlen@?$basic_string@DU?$char_traits@D@std@@V?$allocator@D@2@@std@@SAXXZ DD imagerel $LN4
	DD	imagerel $LN4+18
	DD	imagerel $unwind$?_Xlen@?$basic_string@DU?$char_traits@D@std@@V?$allocator@D@2@@std@@SAXXZ
pdata	ENDS
;	COMDAT pdata
pdata	SEGMENT
$pdata$??0sentry@?$basic_ostream@DU?$char_traits@D@std@@@std@@QEAA@AEAV12@@Z DD imagerel $LN26
	DD	imagerel $LN26+124
	DD	imagerel $unwind$??0sentry@?$basic_ostream@DU?$char_traits@D@std@@@std@@QEAA@AEAV12@@Z
pdata	ENDS
;	COMDAT pdata
pdata	SEGMENT
$pdata$??1sentry@?$basic_ostream@DU?$char_traits@D@std@@@std@@QEAA@XZ DD imagerel $LN13
	DD	imagerel $LN13+72
	DD	imagerel $unwind$??1sentry@?$basic_ostream@DU?$char_traits@D@std@@@std@@QEAA@XZ
pdata	ENDS
;	COMDAT pdata
pdata	SEGMENT
$pdata$??0?$vector@NV?$allocator@N@std@@@std@@QEAA@_KAEBV?$allocator@N@1@@Z DD imagerel $LN54
	DD	imagerel $LN54+38
	DD	imagerel $unwind$??0?$vector@NV?$allocator@N@std@@@std@@QEAA@_KAEBV?$allocator@N@1@@Z
pdata	ENDS
;	COMDAT pdata
pdata	SEGMENT
$pdata$0$??0?$vector@NV?$allocator@N@std@@@std@@QEAA@_KAEBV?$allocator@N@1@@Z DD imagerel $LN54+38
	DD	imagerel $LN54+80
	DD	imagerel $chain$0$??0?$vector@NV?$allocator@N@std@@@std@@QEAA@_KAEBV?$allocator@N@1@@Z
pdata	ENDS
;	COMDAT pdata
pdata	SEGMENT
$pdata$1$??0?$vector@NV?$allocator@N@std@@@std@@QEAA@_KAEBV?$allocator@N@1@@Z DD imagerel $LN54+80
	DD	imagerel $LN54+94
	DD	imagerel $chain$1$??0?$vector@NV?$allocator@N@std@@@std@@QEAA@_KAEBV?$allocator@N@1@@Z
pdata	ENDS
;	COMDAT pdata
pdata	SEGMENT
$pdata$??0?$vector@U?$pair@V?$vector@NV?$allocator@N@std@@@std@@N@std@@V?$allocator@U?$pair@V?$vector@NV?$allocator@N@std@@@std@@N@std@@@2@@std@@QEAA@V?$initializer_list@U?$pair@V?$vector@NV?$allocator@N@std@@@std@@N@std@@@1@AEBV?$allocator@U?$pair@V?$vector@NV?$allocator@N@std@@@std@@N@std@@@1@@Z DD imagerel $LN22
	DD	imagerel $LN22+43
	DD	imagerel $unwind$??0?$vector@U?$pair@V?$vector@NV?$allocator@N@std@@@std@@N@std@@V?$allocator@U?$pair@V?$vector@NV?$allocator@N@std@@@std@@N@std@@@2@@std@@QEAA@V?$initializer_list@U?$pair@V?$vector@NV?$allocator@N@std@@@std@@N@std@@@1@AEBV?$allocator@U?$pair@V?$vector@NV?$allocator@N@std@@@std@@N@std@@@1@@Z
pdata	ENDS
;	COMDAT pdata
pdata	SEGMENT
$pdata$??1?$vector@U?$pair@V?$vector@NV?$allocator@N@std@@@std@@N@std@@V?$allocator@U?$pair@V?$vector@NV?$allocator@N@std@@@std@@N@std@@@2@@std@@QEAA@XZ DD imagerel $LN150
	DD	imagerel $LN150+21
	DD	imagerel $unwind$??1?$vector@U?$pair@V?$vector@NV?$allocator@N@std@@@std@@N@std@@V?$allocator@U?$pair@V?$vector@NV?$allocator@N@std@@@std@@N@std@@@2@@std@@QEAA@XZ
pdata	ENDS
;	COMDAT pdata
pdata	SEGMENT
$pdata$0$??1?$vector@U?$pair@V?$vector@NV?$allocator@N@std@@@std@@N@std@@V?$allocator@U?$pair@V?$vector@NV?$allocator@N@std@@@std@@N@std@@@2@@std@@QEAA@XZ DD imagerel $LN150+21
	DD	imagerel $LN150+86
	DD	imagerel $chain$0$??1?$vector@U?$pair@V?$vector@NV?$allocator@N@std@@@std@@N@std@@V?$allocator@U?$pair@V?$vector@NV?$allocator@N@std@@@std@@N@std@@@2@@std@@QEAA@XZ
pdata	ENDS
;	COMDAT pdata
pdata	SEGMENT
$pdata$1$??1?$vector@U?$pair@V?$vector@NV?$allocator@N@std@@@std@@N@std@@V?$allocator@U?$pair@V?$vector@NV?$allocator@N@std@@@std@@N@std@@@2@@std@@QEAA@XZ DD imagerel $LN150+86
	DD	imagerel $LN150+164
	DD	imagerel $chain$1$??1?$vector@U?$pair@V?$vector@NV?$allocator@N@std@@@std@@N@std@@V?$allocator@U?$pair@V?$vector@NV?$allocator@N@std@@@std@@N@std@@@2@@std@@QEAA@XZ
pdata	ENDS
;	COMDAT pdata
pdata	SEGMENT
$pdata$??$_Reallocate_for@V<lambda_66f57f934f28d61049862f64df852ff0>@@PEBD@?$basic_string@DU?$char_traits@D@std@@V?$allocator@D@2@@std@@QEAAAEAV01@_KV<lambda_66f57f934f28d61049862f64df852ff0>@@PEBD@Z DD imagerel ??$_Reallocate_for@V<lambda_66f57f934f28d61049862f64df852ff0>@@PEBD@?$basic_string@DU?$char_traits@D@std@@V?$allocator@D@2@@std@@QEAAAEAV01@_KV<lambda_66f57f934f28d61049862f64df852ff0>@@PEBD@Z
	DD	imagerel ??$_Reallocate_for@V<lambda_66f57f934f28d61049862f64df852ff0>@@PEBD@?$basic_string@DU?$char_traits@D@std@@V?$allocator@D@2@@std@@QEAAAEAV01@_KV<lambda_66f57f934f28d61049862f64df852ff0>@@PEBD@Z+34
	DD	imagerel $unwind$??$_Reallocate_for@V<lambda_66f57f934f28d61049862f64df852ff0>@@PEBD@?$basic_string@DU?$char_traits@D@std@@V?$allocator@D@2@@std@@QEAAAEAV01@_KV<lambda_66f57f934f28d61049862f64df852ff0>@@PEBD@Z
pdata	ENDS
;	COMDAT pdata
pdata	SEGMENT
$pdata$2$??$_Reallocate_for@V<lambda_66f57f934f28d61049862f64df852ff0>@@PEBD@?$basic_string@DU?$char_traits@D@std@@V?$allocator@D@2@@std@@QEAAAEAV01@_KV<lambda_66f57f934f28d61049862f64df852ff0>@@PEBD@Z DD imagerel ??$_Reallocate_for@V<lambda_66f57f934f28d61049862f64df852ff0>@@PEBD@?$basic_string@DU?$char_traits@D@std@@V?$allocator@D@2@@std@@QEAAAEAV01@_KV<lambda_66f57f934f28d61049862f64df852ff0>@@PEBD@Z+34
	DD	imagerel ??$_Reallocate_for@V<lambda_66f57f934f28d61049862f64df852ff0>@@PEBD@?$basic_string@DU?$char_traits@D@std@@V?$allocator@D@2@@std@@QEAAAEAV01@_KV<lambda_66f57f934f28d61049862f64df852ff0>@@PEBD@Z+314
	DD	imagerel $chain$2$??$_Reallocate_for@V<lambda_66f57f934f28d61049862f64df852ff0>@@PEBD@?$basic_string@DU?$char_traits@D@std@@V?$allocator@D@2@@std@@QEAAAEAV01@_KV<lambda_66f57f934f28d61049862f64df852ff0>@@PEBD@Z
pdata	ENDS
;	COMDAT pdata
pdata	SEGMENT
$pdata$4$??$_Reallocate_for@V<lambda_66f57f934f28d61049862f64df852ff0>@@PEBD@?$basic_string@DU?$char_traits@D@std@@V?$allocator@D@2@@std@@QEAAAEAV01@_KV<lambda_66f57f934f28d61049862f64df852ff0>@@PEBD@Z DD imagerel ??$_Reallocate_for@V<lambda_66f57f934f28d61049862f64df852ff0>@@PEBD@?$basic_string@DU?$char_traits@D@std@@V?$allocator@D@2@@std@@QEAAAEAV01@_KV<lambda_66f57f934f28d61049862f64df852ff0>@@PEBD@Z+314
	DD	imagerel ??$_Reallocate_for@V<lambda_66f57f934f28d61049862f64df852ff0>@@PEBD@?$basic_string@DU?$char_traits@D@std@@V?$allocator@D@2@@std@@QEAAAEAV01@_KV<lambda_66f57f934f28d61049862f64df852ff0>@@PEBD@Z+321
	DD	imagerel $chain$4$??$_Reallocate_for@V<lambda_66f57f934f28d61049862f64df852ff0>@@PEBD@?$basic_string@DU?$char_traits@D@std@@V?$allocator@D@2@@std@@QEAAAEAV01@_KV<lambda_66f57f934f28d61049862f64df852ff0>@@PEBD@Z
pdata	ENDS
;	COMDAT pdata
pdata	SEGMENT
$pdata$5$??$_Reallocate_for@V<lambda_66f57f934f28d61049862f64df852ff0>@@PEBD@?$basic_string@DU?$char_traits@D@std@@V?$allocator@D@2@@std@@QEAAAEAV01@_KV<lambda_66f57f934f28d61049862f64df852ff0>@@PEBD@Z DD imagerel ??$_Reallocate_for@V<lambda_66f57f934f28d61049862f64df852ff0>@@PEBD@?$basic_string@DU?$char_traits@D@std@@V?$allocator@D@2@@std@@QEAAAEAV01@_KV<lambda_66f57f934f28d61049862f64df852ff0>@@PEBD@Z+321
	DD	imagerel ??$_Reallocate_for@V<lambda_66f57f934f28d61049862f64df852ff0>@@PEBD@?$basic_string@DU?$char_traits@D@std@@V?$allocator@D@2@@std@@QEAAAEAV01@_KV<lambda_66f57f934f28d61049862f64df852ff0>@@PEBD@Z+327
	DD	imagerel $chain$5$??$_Reallocate_for@V<lambda_66f57f934f28d61049862f64df852ff0>@@PEBD@?$basic_string@DU?$char_traits@D@std@@V?$allocator@D@2@@std@@QEAAAEAV01@_KV<lambda_66f57f934f28d61049862f64df852ff0>@@PEBD@Z
pdata	ENDS
;	COMDAT pdata
pdata	SEGMENT
$pdata$??$functional_view_blocked@$0CAA@$0BA@N@@YA@AEBV?$vector@NV?$allocator@N@std@@@std@@0@Z DD imagerel $LN257
	DD	imagerel $LN257+585
	DD	imagerel $unwind$??$functional_view_blocked@$0CAA@$0BA@N@@YA@AEBV?$vector@NV?$allocator@N@std@@@std@@0@Z
pdata	ENDS
;	COMDAT pdata
pdata	SEGMENT
$pdata$??$view_blocked@$0CAA@$0BA@N@@YA?AU?$pair@V?$vector@NV?$allocator@N@std@@@std@@N@std@@AEBV?$vector@NV?$allocator@N@std@@@1@0@Z DD imagerel $LN291
	DD	imagerel $LN291+868
	DD	imagerel $unwind$??$view_blocked@$0CAA@$0BA@N@@YA?AU?$pair@V?$vector@NV?$allocator@N@std@@@std@@N@std@@AEBV?$vector@NV?$allocator@N@std@@@1@0@Z
pdata	ENDS
;	COMDAT pdata
pdata	SEGMENT
$pdata$??R<lambda_c164751ea5715ae0ff95fdbf1eaa21f3>@@QEBAXAEBV?$basic_string@DU?$char_traits@D@std@@V?$allocator@D@2@@std@@AEBV?$vector@U?$pair@V?$vector@NV?$allocator@N@std@@@std@@N@std@@V?$allocator@U?$pair@V?$vector@NV?$allocator@N@std@@@std@@N@std@@@2@@2@@Z DD imagerel ??R<lambda_c164751ea5715ae0ff95fdbf1eaa21f3>@@QEBAXAEBV?$basic_string@DU?$char_traits@D@std@@V?$allocator@D@2@@std@@AEBV?$vector@U?$pair@V?$vector@NV?$allocator@N@std@@@std@@N@std@@V?$allocator@U?$pair@V?$vector@NV?$allocator@N@std@@@std@@N@std@@@2@@2@@Z
	DD	imagerel ??R<lambda_c164751ea5715ae0ff95fdbf1eaa21f3>@@QEBAXAEBV?$basic_string@DU?$char_traits@D@std@@V?$allocator@D@2@@std@@AEBV?$vector@U?$pair@V?$vector@NV?$allocator@N@std@@@std@@N@std@@V?$allocator@U?$pair@V?$vector@NV?$allocator@N@std@@@std@@N@std@@@2@@2@@Z+137
	DD	imagerel $unwind$??R<lambda_c164751ea5715ae0ff95fdbf1eaa21f3>@@QEBAXAEBV?$basic_string@DU?$char_traits@D@std@@V?$allocator@D@2@@std@@AEBV?$vector@U?$pair@V?$vector@NV?$allocator@N@std@@@std@@N@std@@V?$allocator@U?$pair@V?$vector@NV?$allocator@N@std@@@std@@N@std@@@2@@2@@Z
pdata	ENDS
;	COMDAT pdata
pdata	SEGMENT
$pdata$??$invoke@$0CAA@@@YAXXZ DD imagerel $LN378
	DD	imagerel $LN378+815
	DD	imagerel $unwind$??$invoke@$0CAA@@@YAXXZ
pdata	ENDS
;	COMDAT pdata
pdata	SEGMENT
$pdata$?dtor$4@?0???$invoke@$0CAA@@@YAXXZ@4HA DD imagerel ?dtor$4@?0???$invoke@$0CAA@@@YAXXZ@4HA
	DD	imagerel ?dtor$4@?0???$invoke@$0CAA@@@YAXXZ@4HA+42
	DD	imagerel $unwind$?dtor$4@?0???$invoke@$0CAA@@@YAXXZ@4HA
pdata	ENDS
;	COMDAT pdata
pdata	SEGMENT
$pdata$??$?6U?$char_traits@D@std@@@std@@YAAEAV?$basic_ostream@DU?$char_traits@D@std@@@0@AEAV10@PEBD@Z DD imagerel $LN113
	DD	imagerel $LN113+445
	DD	imagerel $unwind$??$?6U?$char_traits@D@std@@@std@@YAAEAV?$basic_ostream@DU?$char_traits@D@std@@@0@AEAV10@PEBD@Z
pdata	ENDS
;	COMDAT pdata
pdata	SEGMENT
$pdata$?catch$9@?0???$?6U?$char_traits@D@std@@@std@@YAAEAV?$basic_ostream@DU?$char_traits@D@std@@@0@AEAV10@PEBD@Z@4HA DD imagerel ?catch$9@?0???$?6U?$char_traits@D@std@@@std@@YAAEAV?$basic_ostream@DU?$char_traits@D@std@@@0@AEAV10@PEBD@Z@4HA
	DD	imagerel ?catch$9@?0???$?6U?$char_traits@D@std@@@std@@YAAEAV?$basic_ostream@DU?$char_traits@D@std@@@0@AEAV10@PEBD@Z@4HA+56
	DD	imagerel $unwind$?catch$9@?0???$?6U?$char_traits@D@std@@@std@@YAAEAV?$basic_ostream@DU?$char_traits@D@std@@@0@AEAV10@PEBD@Z@4HA
pdata	ENDS
;	COMDAT pdata
pdata	SEGMENT
$pdata$?deallocate@?$allocator@D@std@@QEAAXQEAD_K@Z DD imagerel $LN20
	DD	imagerel $LN20+62
	DD	imagerel $unwind$?deallocate@?$allocator@D@std@@QEAAXQEAD_K@Z
pdata	ENDS
;	COMDAT pdata
pdata	SEGMENT
$pdata$?allocate@?$allocator@D@std@@QEAAPEAD_K@Z DD imagerel $LN14
	DD	imagerel $LN14+91
	DD	imagerel $unwind$?allocate@?$allocator@D@std@@QEAAPEAD_K@Z
pdata	ENDS
;	COMDAT pdata
pdata	SEGMENT
$pdata$??R<lambda_66f57f934f28d61049862f64df852ff0>@@QEBAXQEAD_KQEBD@Z DD imagerel ??R<lambda_66f57f934f28d61049862f64df852ff0>@@QEBAXQEAD_KQEBD@Z
	DD	imagerel ??R<lambda_66f57f934f28d61049862f64df852ff0>@@QEBAXQEAD_KQEBD@Z+46
	DD	imagerel $unwind$??R<lambda_66f57f934f28d61049862f64df852ff0>@@QEBAXQEAD_KQEBD@Z
pdata	ENDS
;	COMDAT pdata
pdata	SEGMENT
$pdata$?assign@?$basic_string@DU?$char_traits@D@std@@V?$allocator@D@2@@std@@QEAAAEAV12@QEBD_K@Z DD imagerel $LN154
	DD	imagerel $LN154+139
	DD	imagerel $unwind$?assign@?$basic_string@DU?$char_traits@D@std@@V?$allocator@D@2@@std@@QEAAAEAV12@QEBD_K@Z
pdata	ENDS
;	COMDAT pdata
pdata	SEGMENT
$pdata$1$?assign@?$basic_string@DU?$char_traits@D@std@@V?$allocator@D@2@@std@@QEAAAEAV12@QEBD_K@Z DD imagerel $LN154+139
	DD	imagerel $LN154+361
	DD	imagerel $chain$1$?assign@?$basic_string@DU?$char_traits@D@std@@V?$allocator@D@2@@std@@QEAAAEAV12@QEBD_K@Z
pdata	ENDS
;	COMDAT pdata
pdata	SEGMENT
$pdata$3$?assign@?$basic_string@DU?$char_traits@D@std@@V?$allocator@D@2@@std@@QEAAAEAV12@QEBD_K@Z DD imagerel $LN154+361
	DD	imagerel $LN154+368
	DD	imagerel $chain$3$?assign@?$basic_string@DU?$char_traits@D@std@@V?$allocator@D@2@@std@@QEAAAEAV12@QEBD_K@Z
pdata	ENDS
;	COMDAT pdata
pdata	SEGMENT
$pdata$4$?assign@?$basic_string@DU?$char_traits@D@std@@V?$allocator@D@2@@std@@QEAAAEAV12@QEBD_K@Z DD imagerel $LN154+368
	DD	imagerel $LN154+374
	DD	imagerel $chain$4$?assign@?$basic_string@DU?$char_traits@D@std@@V?$allocator@D@2@@std@@QEAAAEAV12@QEBD_K@Z
pdata	ENDS
;	COMDAT pdata
pdata	SEGMENT
$pdata$?_Tidy_deallocate@?$basic_string@DU?$char_traits@D@std@@V?$allocator@D@2@@std@@QEAAXXZ DD imagerel $LN46
	DD	imagerel $LN46+100
	DD	imagerel $unwind$?_Tidy_deallocate@?$basic_string@DU?$char_traits@D@std@@V?$allocator@D@2@@std@@QEAAXXZ
pdata	ENDS
;	COMDAT pdata
pdata	SEGMENT
$pdata$??0?$basic_string@DU?$char_traits@D@std@@V?$allocator@D@2@@std@@QEAA@QEBD@Z DD imagerel $LN31
	DD	imagerel $LN31+48
	DD	imagerel $unwind$??0?$basic_string@DU?$char_traits@D@std@@V?$allocator@D@2@@std@@QEAA@QEBD@Z
pdata	ENDS
;	COMDAT pdata
pdata	SEGMENT
$pdata$??1?$basic_string@DU?$char_traits@D@std@@V?$allocator@D@2@@std@@QEAA@XZ DD imagerel $LN49
	DD	imagerel $LN49+100
	DD	imagerel $unwind$??1?$basic_string@DU?$char_traits@D@std@@V?$allocator@D@2@@std@@QEAA@XZ
pdata	ENDS
;	COMDAT pdata
pdata	SEGMENT
$pdata$main DD	imagerel $LN4
	DD	imagerel $LN4+35
	DD	imagerel $unwind$main
pdata	ENDS
;	COMDAT pdata
pdata	SEGMENT
$pdata$?now@steady_clock@chrono@std@@SA?AV?$time_point@Usteady_clock@chrono@std@@V?$duration@_JU?$ratio@$00$0DLJKMKAA@@std@@@23@@23@XZ DD imagerel $LN8
	DD	imagerel $LN8+75
	DD	imagerel $unwind$?now@steady_clock@chrono@std@@SA?AV?$time_point@Usteady_clock@chrono@std@@V?$duration@_JU?$ratio@$00$0DLJKMKAA@@std@@@23@@23@XZ
pdata	ENDS
;	COMDAT pdata
pdata	SEGMENT
$pdata$?_Deallocate@std@@YAXPEAX_K1@Z DD imagerel $LN17
	DD	imagerel $LN17+80
	DD	imagerel $unwind$?_Deallocate@std@@YAXPEAX_K1@Z
pdata	ENDS
;	COMDAT pdata
pdata	SEGMENT
$pdata$?_Allocate@std@@YAPEAX_K0_N@Z DD imagerel $LN11
	DD	imagerel $LN11+106
	DD	imagerel $unwind$?_Allocate@std@@YAPEAX_K0_N@Z
pdata	ENDS
;	COMDAT pdata
pdata	SEGMENT
$pdata$?copy@?$char_traits@D@std@@SAPEADQEADQEBD_K@Z DD imagerel $LN4
	DD	imagerel $LN4+30
	DD	imagerel $unwind$?copy@?$char_traits@D@std@@SAPEADQEADQEBD_K@Z
pdata	ENDS
;	COMDAT __real@43f0000000000000
CONST	SEGMENT
__real@43f0000000000000 DQ 043f0000000000000r	; 1.84467e+19
CONST	ENDS
;	COMDAT __real@408f400000000000
CONST	SEGMENT
__real@408f400000000000 DQ 0408f400000000000r	; 1000
CONST	ENDS
;	COMDAT __real@3ed0000000000000
CONST	SEGMENT
__real@3ed0000000000000 DQ 03ed0000000000000r	; 3.8147e-06
CONST	ENDS
;	COMDAT xdata
xdata	SEGMENT
$unwind$?copy@?$char_traits@D@std@@SAPEADQEADQEBD_K@Z DD 020601H
	DD	030023206H
xdata	ENDS
;	COMDAT xdata
xdata	SEGMENT
$unwind$?_Allocate@std@@YAPEAX_K0_N@Z DD 010401H
	DD	04204H
xdata	ENDS
;	COMDAT xdata
xdata	SEGMENT
$unwind$?_Deallocate@std@@YAXPEAX_K1@Z DD 010401H
	DD	04204H
xdata	ENDS
;	COMDAT xdata
xdata	SEGMENT
$unwind$?now@steady_clock@chrono@std@@SA?AV?$time_point@Usteady_clock@chrono@std@@V?$duration@_JU?$ratio@$00$0DLJKMKAA@@std@@@23@@23@XZ DD 040a01H
	DD	06340aH
	DD	07006320aH
xdata	ENDS
;	COMDAT xdata
xdata	SEGMENT
$unwind$main DD	010401H
	DD	04204H
xdata	ENDS
;	COMDAT xdata
xdata	SEGMENT
$unwind$??1?$basic_string@DU?$char_traits@D@std@@V?$allocator@D@2@@std@@QEAA@XZ DD 020601H
	DD	030023206H
xdata	ENDS
;	COMDAT xdata
xdata	SEGMENT
$unwind$??0?$basic_string@DU?$char_traits@D@std@@V?$allocator@D@2@@std@@QEAA@QEBD@Z DD 020601H
	DD	030023206H
xdata	ENDS
;	COMDAT xdata
xdata	SEGMENT
$unwind$?_Tidy_deallocate@?$basic_string@DU?$char_traits@D@std@@V?$allocator@D@2@@std@@QEAAXXZ DD 020601H
	DD	030023206H
xdata	ENDS
;	COMDAT xdata
xdata	SEGMENT
$chain$4$?assign@?$basic_string@DU?$char_traits@D@std@@V?$allocator@D@2@@std@@QEAAAEAV12@QEBD_K@Z DD 021H
	DD	imagerel $LN154
	DD	imagerel $LN154+139
	DD	imagerel $unwind$?assign@?$basic_string@DU?$char_traits@D@std@@V?$allocator@D@2@@std@@QEAAAEAV12@QEBD_K@Z
xdata	ENDS
;	COMDAT xdata
xdata	SEGMENT
$chain$3$?assign@?$basic_string@DU?$char_traits@D@std@@V?$allocator@D@2@@std@@QEAAAEAV12@QEBD_K@Z DD 040021H
	DD	04f400H
	DD	0b5400H
	DD	imagerel $LN154
	DD	imagerel $LN154+139
	DD	imagerel $unwind$?assign@?$basic_string@DU?$char_traits@D@std@@V?$allocator@D@2@@std@@QEAAAEAV12@QEBD_K@Z
xdata	ENDS
;	COMDAT xdata
xdata	SEGMENT
$chain$1$?assign@?$basic_string@DU?$char_traits@D@std@@V?$allocator@D@2@@std@@QEAAAEAV12@QEBD_K@Z DD 040e21H
	DD	04f40eH
	DD	0b5405H
	DD	imagerel $LN154
	DD	imagerel $LN154+139
	DD	imagerel $unwind$?assign@?$basic_string@DU?$char_traits@D@std@@V?$allocator@D@2@@std@@QEAAAEAV12@QEBD_K@Z
xdata	ENDS
;	COMDAT xdata
xdata	SEGMENT
$unwind$?assign@?$basic_string@DU?$char_traits@D@std@@V?$allocator@D@2@@std@@QEAAAEAV12@QEBD_K@Z DD 050a01H
	DD	0e006420aH
	DD	060037004H
	DD	03002H
xdata	ENDS
;	COMDAT xdata
xdata	SEGMENT
$unwind$??R<lambda_66f57f934f28d61049862f64df852ff0>@@QEBAXQEAD_KQEBD@Z DD 040a01H
	DD	06340aH
	DD	07006320aH
xdata	ENDS
;	COMDAT xdata
xdata	SEGMENT
$unwind$?allocate@?$allocator@D@std@@QEAAPEAD_K@Z DD 010401H
	DD	04204H
xdata	ENDS
;	COMDAT xdata
xdata	SEGMENT
$unwind$?deallocate@?$allocator@D@std@@QEAAXQEAD_K@Z DD 010401H
	DD	04204H
xdata	ENDS
;	COMDAT xdata
xdata	SEGMENT
$unwind$?catch$9@?0???$?6U?$char_traits@D@std@@@std@@YAAEAV?$basic_ostream@DU?$char_traits@D@std@@@0@AEAV10@PEBD@Z@4HA DD 020a19H
	DD	05006320aH
	DD	imagerel __CxxFrameHandler3
	DD	imagerel $cppxdata$??$?6U?$char_traits@D@std@@@std@@YAAEAV?$basic_ostream@DU?$char_traits@D@std@@@0@AEAV10@PEBD@Z
xdata	ENDS
;	COMDAT xdata
xdata	SEGMENT
$ip2state$??$?6U?$char_traits@D@std@@@std@@YAAEAV?$basic_ostream@DU?$char_traits@D@std@@@0@AEAV10@PEBD@Z DD imagerel ??$?6U?$char_traits@D@std@@@std@@YAAEAV?$basic_ostream@DU?$char_traits@D@std@@@0@AEAV10@PEBD@Z
	DD	0ffffffffH
	DD	imagerel ??$?6U?$char_traits@D@std@@@std@@YAAEAV?$basic_ostream@DU?$char_traits@D@std@@@0@AEAV10@PEBD@Z+113
	DD	00H
	DD	imagerel ??$?6U?$char_traits@D@std@@@std@@YAAEAV?$basic_ostream@DU?$char_traits@D@std@@@0@AEAV10@PEBD@Z+167
	DD	01H
	DD	imagerel ??$?6U?$char_traits@D@std@@@std@@YAAEAV?$basic_ostream@DU?$char_traits@D@std@@@0@AEAV10@PEBD@Z+181
	DD	02H
	DD	imagerel ??$?6U?$char_traits@D@std@@@std@@YAAEAV?$basic_ostream@DU?$char_traits@D@std@@@0@AEAV10@PEBD@Z+338
	DD	01H
	DD	imagerel ??$?6U?$char_traits@D@std@@@std@@YAAEAV?$basic_ostream@DU?$char_traits@D@std@@@0@AEAV10@PEBD@Z+379
	DD	04H
	DD	imagerel ??$?6U?$char_traits@D@std@@@std@@YAAEAV?$basic_ostream@DU?$char_traits@D@std@@@0@AEAV10@PEBD@Z+399
	DD	05H
	DD	imagerel ??$?6U?$char_traits@D@std@@@std@@YAAEAV?$basic_ostream@DU?$char_traits@D@std@@@0@AEAV10@PEBD@Z+424
	DD	0ffffffffH
	DD	imagerel ?catch$9@?0???$?6U?$char_traits@D@std@@@std@@YAAEAV?$basic_ostream@DU?$char_traits@D@std@@@0@AEAV10@PEBD@Z@4HA
	DD	00H
	DD	imagerel ?catch$9@?0???$?6U?$char_traits@D@std@@@std@@YAAEAV?$basic_ostream@DU?$char_traits@D@std@@@0@AEAV10@PEBD@Z@4HA+13
	DD	03H
	DD	imagerel ?catch$9@?0???$?6U?$char_traits@D@std@@@std@@YAAEAV?$basic_ostream@DU?$char_traits@D@std@@@0@AEAV10@PEBD@Z@4HA+42
	DD	00H
xdata	ENDS
;	COMDAT xdata
xdata	SEGMENT
$handlerMap$0$??$?6U?$char_traits@D@std@@@std@@YAAEAV?$basic_ostream@DU?$char_traits@D@std@@@0@AEAV10@PEBD@Z DD 040H
	DD	00H
	DD	00H
	DD	imagerel ?catch$9@?0???$?6U?$char_traits@D@std@@@std@@YAAEAV?$basic_ostream@DU?$char_traits@D@std@@@0@AEAV10@PEBD@Z@4HA
	DD	038H
xdata	ENDS
;	COMDAT xdata
xdata	SEGMENT
$tryMap$??$?6U?$char_traits@D@std@@@std@@YAAEAV?$basic_ostream@DU?$char_traits@D@std@@@0@AEAV10@PEBD@Z DD 02H
	DD	02H
	DD	03H
	DD	01H
	DD	imagerel $handlerMap$0$??$?6U?$char_traits@D@std@@@std@@YAAEAV?$basic_ostream@DU?$char_traits@D@std@@@0@AEAV10@PEBD@Z
xdata	ENDS
;	COMDAT xdata
xdata	SEGMENT
$stateUnwindMap$??$?6U?$char_traits@D@std@@@std@@YAAEAV?$basic_ostream@DU?$char_traits@D@std@@@0@AEAV10@PEBD@Z DD 0ffffffffH
	DD	imagerel ?dtor$2@?0???$?6U?$char_traits@D@std@@@std@@YAAEAV?$basic_ostream@DU?$char_traits@D@std@@@0@AEAV10@PEBD@Z@4HA
	DD	0ffffffffH
	DD	imagerel ?dtor$0@?0???$?6U?$char_traits@D@std@@@std@@YAAEAV?$basic_ostream@DU?$char_traits@D@std@@@0@AEAV10@PEBD@Z@4HA
	DD	01H
	DD	00H
	DD	01H
	DD	00H
	DD	0ffffffffH
	DD	imagerel __imp___std_terminate
	DD	04H
	DD	imagerel __imp___std_terminate
xdata	ENDS
;	COMDAT CONST
CONST	SEGMENT
$cppxdata$??$?6U?$char_traits@D@std@@@std@@YAAEAV?$basic_ostream@DU?$char_traits@D@std@@@0@AEAV10@PEBD@Z DD 019930522H
	DD	06H
	DD	imagerel $stateUnwindMap$??$?6U?$char_traits@D@std@@@std@@YAAEAV?$basic_ostream@DU?$char_traits@D@std@@@0@AEAV10@PEBD@Z
	DD	01H
	DD	imagerel $tryMap$??$?6U?$char_traits@D@std@@@std@@YAAEAV?$basic_ostream@DU?$char_traits@D@std@@@0@AEAV10@PEBD@Z
	DD	0bH
	DD	imagerel $ip2state$??$?6U?$char_traits@D@std@@@std@@YAAEAV?$basic_ostream@DU?$char_traits@D@std@@@0@AEAV10@PEBD@Z
	DD	020H
	DD	00H
	DD	01H
CONST	ENDS
;	COMDAT xdata
xdata	SEGMENT
$unwind$??$?6U?$char_traits@D@std@@@std@@YAAEAV?$basic_ostream@DU?$char_traits@D@std@@@0@AEAV10@PEBD@Z DD 081f19H
	DD	0f341fH
	DD	0f00d7211H
	DD	0c009e00bH
	DD	060067007H
	DD	imagerel __CxxFrameHandler3
	DD	imagerel $cppxdata$??$?6U?$char_traits@D@std@@@std@@YAAEAV?$basic_ostream@DU?$char_traits@D@std@@@0@AEAV10@PEBD@Z
xdata	ENDS
;	COMDAT xdata
xdata	SEGMENT
$unwind$?dtor$4@?0???$invoke@$0CAA@@@YAXXZ@4HA DD 020601H
	DD	050023206H
xdata	ENDS
;	COMDAT xdata
xdata	SEGMENT
$ip2state$??$invoke@$0CAA@@@YAXXZ DD imagerel ??$invoke@$0CAA@@@YAXXZ
	DD	0ffffffffH
	DD	imagerel ??$invoke@$0CAA@@@YAXXZ+126
	DD	00H
	DD	imagerel ??$invoke@$0CAA@@@YAXXZ+155
	DD	01H
	DD	imagerel ??$invoke@$0CAA@@@YAXXZ+317
	DD	02H
	DD	imagerel ??$invoke@$0CAA@@@YAXXZ+335
	DD	03H
	DD	imagerel ??$invoke@$0CAA@@@YAXXZ+369
	DD	04H
	DD	imagerel ??$invoke@$0CAA@@@YAXXZ+405
	DD	05H
	DD	imagerel ??$invoke@$0CAA@@@YAXXZ+528
	DD	04H
	DD	imagerel ??$invoke@$0CAA@@@YAXXZ+617
	DD	03H
	DD	imagerel ??$invoke@$0CAA@@@YAXXZ+733
	DD	01H
	DD	imagerel ??$invoke@$0CAA@@@YAXXZ+759
	DD	00H
	DD	imagerel ??$invoke@$0CAA@@@YAXXZ+769
	DD	0ffffffffH
xdata	ENDS
;	COMDAT xdata
xdata	SEGMENT
$stateUnwindMap$??$invoke@$0CAA@@@YAXXZ DD 0ffffffffH
	DD	imagerel ?dtor$0@?0???$invoke@$0CAA@@@YAXXZ@4HA
	DD	00H
	DD	imagerel ?dtor$1@?0???$invoke@$0CAA@@@YAXXZ@4HA
	DD	01H
	DD	imagerel ?dtor$2@?0???$invoke@$0CAA@@@YAXXZ@4HA
	DD	01H
	DD	imagerel ?dtor$4@?0???$invoke@$0CAA@@@YAXXZ@4HA
	DD	03H
	DD	imagerel ?dtor$5@?0???$invoke@$0CAA@@@YAXXZ@4HA
	DD	04H
	DD	imagerel ?dtor$6@?0???$invoke@$0CAA@@@YAXXZ@4HA
xdata	ENDS
;	COMDAT CONST
CONST	SEGMENT
$cppxdata$??$invoke@$0CAA@@@YAXXZ DD 019930522H
	DD	06H
	DD	imagerel $stateUnwindMap$??$invoke@$0CAA@@@YAXXZ
	DD	00H
	DD	00H
	DD	0cH
	DD	imagerel $ip2state$??$invoke@$0CAA@@@YAXXZ
	DD	058H
	DD	00H
	DD	01H
CONST	ENDS
;	COMDAT xdata
xdata	SEGMENT
$unwind$??$invoke@$0CAA@@@YAXXZ DD 093119H
	DD	0207423H
	DD	01f641fH
	DD	01e341bH
	DD	01c010fH
	DD	05004H
	DD	imagerel __GSHandlerCheck_EH
	DD	imagerel $cppxdata$??$invoke@$0CAA@@@YAXXZ
	DD	0d2H
xdata	ENDS
;	COMDAT xdata
xdata	SEGMENT
$unwind$??R<lambda_c164751ea5715ae0ff95fdbf1eaa21f3>@@QEBAXAEBV?$basic_string@DU?$char_traits@D@std@@V?$allocator@D@2@@std@@AEBV?$vector@U?$pair@V?$vector@NV?$allocator@N@std@@@std@@N@std@@V?$allocator@U?$pair@V?$vector@NV?$allocator@N@std@@@std@@N@std@@@2@@2@@Z DD 040a01H
	DD	06340aH
	DD	07006320aH
xdata	ENDS
;	COMDAT xdata
xdata	SEGMENT
$ip2state$??$view_blocked@$0CAA@$0BA@N@@YA?AU?$pair@V?$vector@NV?$allocator@N@std@@@std@@N@std@@AEBV?$vector@NV?$allocator@N@std@@@1@0@Z DD imagerel ??$view_blocked@$0CAA@$0BA@N@@YA?AU?$pair@V?$vector@NV?$allocator@N@std@@@std@@N@std@@AEBV?$vector@NV?$allocator@N@std@@@1@0@Z
	DD	0ffffffffH
	DD	imagerel ??$view_blocked@$0CAA@$0BA@N@@YA?AU?$pair@V?$vector@NV?$allocator@N@std@@@std@@N@std@@AEBV?$vector@NV?$allocator@N@std@@@1@0@Z+102
	DD	00H
	DD	imagerel ??$view_blocked@$0CAA@$0BA@N@@YA?AU?$pair@V?$vector@NV?$allocator@N@std@@@std@@N@std@@AEBV?$vector@NV?$allocator@N@std@@@1@0@Z+798
	DD	0ffffffffH
xdata	ENDS
;	COMDAT xdata
xdata	SEGMENT
$stateUnwindMap$??$view_blocked@$0CAA@$0BA@N@@YA?AU?$pair@V?$vector@NV?$allocator@N@std@@@std@@N@std@@AEBV?$vector@NV?$allocator@N@std@@@1@0@Z DD 0ffffffffH
	DD	imagerel ?dtor$0@?0???$view_blocked@$0CAA@$0BA@N@@YA?AU?$pair@V?$vector@NV?$allocator@N@std@@@std@@N@std@@AEBV?$vector@NV?$allocator@N@std@@@1@0@Z@4HA
xdata	ENDS
;	COMDAT CONST
CONST	SEGMENT
$cppxdata$??$view_blocked@$0CAA@$0BA@N@@YA?AU?$pair@V?$vector@NV?$allocator@N@std@@@std@@N@std@@AEBV?$vector@NV?$allocator@N@std@@@1@0@Z DD 019930522H
	DD	01H
	DD	imagerel $stateUnwindMap$??$view_blocked@$0CAA@$0BA@N@@YA?AU?$pair@V?$vector@NV?$allocator@N@std@@@std@@N@std@@AEBV?$vector@NV?$allocator@N@std@@@1@0@Z
	DD	00H
	DD	00H
	DD	03H
	DD	imagerel $ip2state$??$view_blocked@$0CAA@$0BA@N@@YA?AU?$pair@V?$vector@NV?$allocator@N@std@@@std@@N@std@@AEBV?$vector@NV?$allocator@N@std@@@1@0@Z
	DD	078H
	DD	00H
	DD	01H
CONST	ENDS
;	COMDAT xdata
xdata	SEGMENT
$unwind$??$view_blocked@$0CAA@$0BA@N@@YA?AU?$pair@V?$vector@NV?$allocator@N@std@@@std@@N@std@@AEBV?$vector@NV?$allocator@N@std@@@1@0@Z DD 0f3e19H
	DD	0a682cH
	DD	01f6427H
	DD	01e5423H
	DD	01d341fH
	DD	0160113H
	DD	0e00af00cH
	DD	0c006d008H
	DD	07004H
	DD	imagerel __GSHandlerCheck_EH
	DD	imagerel $cppxdata$??$view_blocked@$0CAA@$0BA@N@@YA?AU?$pair@V?$vector@NV?$allocator@N@std@@@std@@N@std@@AEBV?$vector@NV?$allocator@N@std@@@1@0@Z
	DD	09aH
xdata	ENDS
;	COMDAT xdata
xdata	SEGMENT
$ip2state$??$functional_view_blocked@$0CAA@$0BA@N@@YA@AEBV?$vector@NV?$allocator@N@std@@@std@@0@Z DD imagerel ??$functional_view_blocked@$0CAA@$0BA@N@@YA@AEBV?$vector@NV?$allocator@N@std@@@std@@0@Z
	DD	0ffffffffH
	DD	imagerel ??$functional_view_blocked@$0CAA@$0BA@N@@YA@AEBV?$vector@NV?$allocator@N@std@@@std@@0@Z+95
	DD	00H
	DD	imagerel ??$functional_view_blocked@$0CAA@$0BA@N@@YA@AEBV?$vector@NV?$allocator@N@std@@@std@@0@Z+141
	DD	01H
	DD	imagerel ??$functional_view_blocked@$0CAA@$0BA@N@@YA@AEBV?$vector@NV?$allocator@N@std@@@std@@0@Z+518
	DD	00H
	DD	imagerel ??$functional_view_blocked@$0CAA@$0BA@N@@YA@AEBV?$vector@NV?$allocator@N@std@@@std@@0@Z+528
	DD	0ffffffffH
xdata	ENDS
;	COMDAT xdata
xdata	SEGMENT
$stateUnwindMap$??$functional_view_blocked@$0CAA@$0BA@N@@YA@AEBV?$vector@NV?$allocator@N@std@@@std@@0@Z DD 0ffffffffH
	DD	imagerel ?dtor$0@?0???$functional_view_blocked@$0CAA@$0BA@N@@YA@AEBV?$vector@NV?$allocator@N@std@@@std@@0@Z@4HA
	DD	00H
	DD	imagerel ?dtor$1@?0???$functional_view_blocked@$0CAA@$0BA@N@@YA@AEBV?$vector@NV?$allocator@N@std@@@std@@0@Z@4HA
xdata	ENDS
;	COMDAT CONST
CONST	SEGMENT
$cppxdata$??$functional_view_blocked@$0CAA@$0BA@N@@YA@AEBV?$vector@NV?$allocator@N@std@@@std@@0@Z DD 019930522H
	DD	02H
	DD	imagerel $stateUnwindMap$??$functional_view_blocked@$0CAA@$0BA@N@@YA@AEBV?$vector@NV?$allocator@N@std@@@std@@0@Z
	DD	00H
	DD	00H
	DD	05H
	DD	imagerel $ip2state$??$functional_view_blocked@$0CAA@$0BA@N@@YA@AEBV?$vector@NV?$allocator@N@std@@@std@@0@Z
	DD	060H
	DD	00H
	DD	01H
CONST	ENDS
;	COMDAT xdata
xdata	SEGMENT
$unwind$??$functional_view_blocked@$0CAA@$0BA@N@@YA@AEBV?$vector@NV?$allocator@N@std@@@std@@0@Z DD 0d3919H
	DD	013682bH
	DD	0306427H
	DD	02f3423H
	DD	0280116H
	DD	0e009f00bH
	DD	07005c007H
	DD	05004H
	DD	imagerel __GSHandlerCheck_EH
	DD	imagerel $cppxdata$??$functional_view_blocked@$0CAA@$0BA@N@@YA@AEBV?$vector@NV?$allocator@N@std@@@std@@0@Z
	DD	012aH
xdata	ENDS
;	COMDAT xdata
xdata	SEGMENT
$chain$5$??$_Reallocate_for@V<lambda_66f57f934f28d61049862f64df852ff0>@@PEBD@?$basic_string@DU?$char_traits@D@std@@V?$allocator@D@2@@std@@QEAAAEAV01@_KV<lambda_66f57f934f28d61049862f64df852ff0>@@PEBD@Z DD 021H
	DD	imagerel ??$_Reallocate_for@V<lambda_66f57f934f28d61049862f64df852ff0>@@PEBD@?$basic_string@DU?$char_traits@D@std@@V?$allocator@D@2@@std@@QEAAAEAV01@_KV<lambda_66f57f934f28d61049862f64df852ff0>@@PEBD@Z
	DD	imagerel ??$_Reallocate_for@V<lambda_66f57f934f28d61049862f64df852ff0>@@PEBD@?$basic_string@DU?$char_traits@D@std@@V?$allocator@D@2@@std@@QEAAAEAV01@_KV<lambda_66f57f934f28d61049862f64df852ff0>@@PEBD@Z+34
	DD	imagerel $unwind$??$_Reallocate_for@V<lambda_66f57f934f28d61049862f64df852ff0>@@PEBD@?$basic_string@DU?$char_traits@D@std@@V?$allocator@D@2@@std@@QEAAAEAV01@_KV<lambda_66f57f934f28d61049862f64df852ff0>@@PEBD@Z
xdata	ENDS
;	COMDAT xdata
xdata	SEGMENT
$chain$4$??$_Reallocate_for@V<lambda_66f57f934f28d61049862f64df852ff0>@@PEBD@?$basic_string@DU?$char_traits@D@std@@V?$allocator@D@2@@std@@QEAAAEAV01@_KV<lambda_66f57f934f28d61049862f64df852ff0>@@PEBD@Z DD 060021H
	DD	04e400H
	DD	057400H
	DD	0c5400H
	DD	imagerel ??$_Reallocate_for@V<lambda_66f57f934f28d61049862f64df852ff0>@@PEBD@?$basic_string@DU?$char_traits@D@std@@V?$allocator@D@2@@std@@QEAAAEAV01@_KV<lambda_66f57f934f28d61049862f64df852ff0>@@PEBD@Z
	DD	imagerel ??$_Reallocate_for@V<lambda_66f57f934f28d61049862f64df852ff0>@@PEBD@?$basic_string@DU?$char_traits@D@std@@V?$allocator@D@2@@std@@QEAAAEAV01@_KV<lambda_66f57f934f28d61049862f64df852ff0>@@PEBD@Z+34
	DD	imagerel $unwind$??$_Reallocate_for@V<lambda_66f57f934f28d61049862f64df852ff0>@@PEBD@?$basic_string@DU?$char_traits@D@std@@V?$allocator@D@2@@std@@QEAAAEAV01@_KV<lambda_66f57f934f28d61049862f64df852ff0>@@PEBD@Z
xdata	ENDS
;	COMDAT xdata
xdata	SEGMENT
$chain$2$??$_Reallocate_for@V<lambda_66f57f934f28d61049862f64df852ff0>@@PEBD@?$basic_string@DU?$char_traits@D@std@@V?$allocator@D@2@@std@@QEAAAEAV01@_KV<lambda_66f57f934f28d61049862f64df852ff0>@@PEBD@Z DD 064521H
	DD	057445H
	DD	0c5439H
	DD	04e405H
	DD	imagerel ??$_Reallocate_for@V<lambda_66f57f934f28d61049862f64df852ff0>@@PEBD@?$basic_string@DU?$char_traits@D@std@@V?$allocator@D@2@@std@@QEAAAEAV01@_KV<lambda_66f57f934f28d61049862f64df852ff0>@@PEBD@Z
	DD	imagerel ??$_Reallocate_for@V<lambda_66f57f934f28d61049862f64df852ff0>@@PEBD@?$basic_string@DU?$char_traits@D@std@@V?$allocator@D@2@@std@@QEAAAEAV01@_KV<lambda_66f57f934f28d61049862f64df852ff0>@@PEBD@Z+34
	DD	imagerel $unwind$??$_Reallocate_for@V<lambda_66f57f934f28d61049862f64df852ff0>@@PEBD@?$basic_string@DU?$char_traits@D@std@@V?$allocator@D@2@@std@@QEAAAEAV01@_KV<lambda_66f57f934f28d61049862f64df852ff0>@@PEBD@Z
xdata	ENDS
;	COMDAT xdata
xdata	SEGMENT
$unwind$??$_Reallocate_for@V<lambda_66f57f934f28d61049862f64df852ff0>@@PEBD@?$basic_string@DU?$char_traits@D@std@@V?$allocator@D@2@@std@@QEAAAEAV01@_KV<lambda_66f57f934f28d61049862f64df852ff0>@@PEBD@Z DD 040901H
	DD	0f0055209H
	DD	030026003H
xdata	ENDS
;	COMDAT xdata
xdata	SEGMENT
$chain$1$??1?$vector@U?$pair@V?$vector@NV?$allocator@N@std@@@std@@N@std@@V?$allocator@U?$pair@V?$vector@NV?$allocator@N@std@@@std@@N@std@@@2@@std@@QEAA@XZ DD 021H
	DD	imagerel $LN150
	DD	imagerel $LN150+21
	DD	imagerel $unwind$??1?$vector@U?$pair@V?$vector@NV?$allocator@N@std@@@std@@N@std@@V?$allocator@U?$pair@V?$vector@NV?$allocator@N@std@@@std@@N@std@@@2@@std@@QEAA@XZ
xdata	ENDS
;	COMDAT xdata
xdata	SEGMENT
$chain$0$??1?$vector@U?$pair@V?$vector@NV?$allocator@N@std@@@std@@N@std@@V?$allocator@U?$pair@V?$vector@NV?$allocator@N@std@@@std@@N@std@@@2@@std@@QEAA@XZ DD 020521H
	DD	066405H
	DD	imagerel $LN150
	DD	imagerel $LN150+21
	DD	imagerel $unwind$??1?$vector@U?$pair@V?$vector@NV?$allocator@N@std@@@std@@N@std@@V?$allocator@U?$pair@V?$vector@NV?$allocator@N@std@@@std@@N@std@@@2@@std@@QEAA@XZ
xdata	ENDS
;	COMDAT xdata
xdata	SEGMENT
$unwind$??1?$vector@U?$pair@V?$vector@NV?$allocator@N@std@@@std@@N@std@@V?$allocator@U?$pair@V?$vector@NV?$allocator@N@std@@@std@@N@std@@@2@@std@@QEAA@XZ DD 040a01H
	DD	07340aH
	DD	07006320aH
xdata	ENDS
;	COMDAT xdata
xdata	SEGMENT
$unwind$??0?$vector@U?$pair@V?$vector@NV?$allocator@N@std@@@std@@N@std@@V?$allocator@U?$pair@V?$vector@NV?$allocator@N@std@@@std@@N@std@@@2@@std@@QEAA@V?$initializer_list@U?$pair@V?$vector@NV?$allocator@N@std@@@std@@N@std@@@1@AEBV?$allocator@U?$pair@V?$vector@NV?$allocator@N@std@@@std@@N@std@@@1@@Z DD 020601H
	DD	030023206H
xdata	ENDS
;	COMDAT xdata
xdata	SEGMENT
$chain$1$??0?$vector@NV?$allocator@N@std@@@std@@QEAA@_KAEBV?$allocator@N@1@@Z DD 021H
	DD	imagerel $LN54
	DD	imagerel $LN54+38
	DD	imagerel $unwind$??0?$vector@NV?$allocator@N@std@@@std@@QEAA@_KAEBV?$allocator@N@1@@Z
xdata	ENDS
;	COMDAT xdata
xdata	SEGMENT
$chain$0$??0?$vector@NV?$allocator@N@std@@@std@@QEAA@_KAEBV?$allocator@N@1@@Z DD 020521H
	DD	067405H
	DD	imagerel $LN54
	DD	imagerel $LN54+38
	DD	imagerel $unwind$??0?$vector@NV?$allocator@N@std@@@std@@QEAA@_KAEBV?$allocator@N@1@@Z
xdata	ENDS
;	COMDAT xdata
xdata	SEGMENT
$unwind$??0?$vector@NV?$allocator@N@std@@@std@@QEAA@_KAEBV?$allocator@N@1@@Z DD 040a01H
	DD	07340aH
	DD	06006320aH
xdata	ENDS
;	COMDAT xdata
xdata	SEGMENT
$ip2state$??1sentry@?$basic_ostream@DU?$char_traits@D@std@@@std@@QEAA@XZ DD imagerel ??1sentry@?$basic_ostream@DU?$char_traits@D@std@@@std@@QEAA@XZ
	DD	0ffffffffH
	DD	imagerel ??1sentry@?$basic_ostream@DU?$char_traits@D@std@@@std@@QEAA@XZ+39
	DD	00H
	DD	imagerel ??1sentry@?$basic_ostream@DU?$char_traits@D@std@@@std@@QEAA@XZ+66
	DD	0ffffffffH
xdata	ENDS
;	COMDAT xdata
xdata	SEGMENT
$stateUnwindMap$??1sentry@?$basic_ostream@DU?$char_traits@D@std@@@std@@QEAA@XZ DD 0ffffffffH
	DD	imagerel __imp___std_terminate
xdata	ENDS
;	COMDAT CONST
CONST	SEGMENT
$cppxdata$??1sentry@?$basic_ostream@DU?$char_traits@D@std@@@std@@QEAA@XZ DD 019930522H
	DD	01H
	DD	imagerel $stateUnwindMap$??1sentry@?$basic_ostream@DU?$char_traits@D@std@@@std@@QEAA@XZ
	DD	00H
	DD	00H
	DD	03H
	DD	imagerel $ip2state$??1sentry@?$basic_ostream@DU?$char_traits@D@std@@@std@@QEAA@XZ
	DD	020H
	DD	00H
	DD	05H
CONST	ENDS
;	COMDAT xdata
xdata	SEGMENT
$unwind$??1sentry@?$basic_ostream@DU?$char_traits@D@std@@@std@@QEAA@XZ DD 020f19H
	DD	030025206H
	DD	imagerel __CxxFrameHandler3
	DD	imagerel $cppxdata$??1sentry@?$basic_ostream@DU?$char_traits@D@std@@@std@@QEAA@XZ
xdata	ENDS
;	COMDAT xdata
xdata	SEGMENT
$ip2state$??0sentry@?$basic_ostream@DU?$char_traits@D@std@@@std@@QEAA@AEAV12@@Z DD imagerel ??0sentry@?$basic_ostream@DU?$char_traits@D@std@@@std@@QEAA@AEAV12@@Z
	DD	0ffffffffH
	DD	imagerel ??0sentry@?$basic_ostream@DU?$char_traits@D@std@@@std@@QEAA@AEAV12@@Z+57
	DD	00H
	DD	imagerel ??0sentry@?$basic_ostream@DU?$char_traits@D@std@@@std@@QEAA@AEAV12@@Z+110
	DD	0ffffffffH
xdata	ENDS
;	COMDAT xdata
xdata	SEGMENT
$stateUnwindMap$??0sentry@?$basic_ostream@DU?$char_traits@D@std@@@std@@QEAA@AEAV12@@Z DD 0ffffffffH
	DD	imagerel ?dtor$0@?0???0sentry@?$basic_ostream@DU?$char_traits@D@std@@@std@@QEAA@AEAV12@@Z@4HA
xdata	ENDS
;	COMDAT CONST
CONST	SEGMENT
$cppxdata$??0sentry@?$basic_ostream@DU?$char_traits@D@std@@@std@@QEAA@AEAV12@@Z DD 019930522H
	DD	01H
	DD	imagerel $stateUnwindMap$??0sentry@?$basic_ostream@DU?$char_traits@D@std@@@std@@QEAA@AEAV12@@Z
	DD	00H
	DD	00H
	DD	03H
	DD	imagerel $ip2state$??0sentry@?$basic_ostream@DU?$char_traits@D@std@@@std@@QEAA@AEAV12@@Z
	DD	020H
	DD	00H
	DD	01H
CONST	ENDS
;	COMDAT xdata
xdata	SEGMENT
$unwind$??0sentry@?$basic_ostream@DU?$char_traits@D@std@@@std@@QEAA@AEAV12@@Z DD 041811H
	DD	093418H
	DD	07006520aH
	DD	imagerel __CxxFrameHandler3
	DD	imagerel $cppxdata$??0sentry@?$basic_ostream@DU?$char_traits@D@std@@@std@@QEAA@AEAV12@@Z
xdata	ENDS
;	COMDAT xdata
xdata	SEGMENT
$unwind$?_Xlen@?$basic_string@DU?$char_traits@D@std@@V?$allocator@D@2@@std@@SAXXZ DD 010401H
	DD	04204H
xdata	ENDS
;	COMDAT xdata
xdata	SEGMENT
$chain$1$?_Tidy@?$vector@U?$pair@V?$vector@NV?$allocator@N@std@@@std@@N@std@@V?$allocator@U?$pair@V?$vector@NV?$allocator@N@std@@@std@@N@std@@@2@@std@@AEAAXXZ DD 021H
	DD	imagerel $LN147
	DD	imagerel $LN147+21
	DD	imagerel $unwind$?_Tidy@?$vector@U?$pair@V?$vector@NV?$allocator@N@std@@@std@@N@std@@V?$allocator@U?$pair@V?$vector@NV?$allocator@N@std@@@std@@N@std@@@2@@std@@AEAAXXZ
xdata	ENDS
;	COMDAT xdata
xdata	SEGMENT
$chain$0$?_Tidy@?$vector@U?$pair@V?$vector@NV?$allocator@N@std@@@std@@N@std@@V?$allocator@U?$pair@V?$vector@NV?$allocator@N@std@@@std@@N@std@@@2@@std@@AEAAXXZ DD 020521H
	DD	066405H
	DD	imagerel $LN147
	DD	imagerel $LN147+21
	DD	imagerel $unwind$?_Tidy@?$vector@U?$pair@V?$vector@NV?$allocator@N@std@@@std@@N@std@@V?$allocator@U?$pair@V?$vector@NV?$allocator@N@std@@@std@@N@std@@@2@@std@@AEAAXXZ
xdata	ENDS
;	COMDAT xdata
xdata	SEGMENT
$unwind$?_Tidy@?$vector@U?$pair@V?$vector@NV?$allocator@N@std@@@std@@N@std@@V?$allocator@U?$pair@V?$vector@NV?$allocator@N@std@@@std@@N@std@@@2@@std@@AEAAXXZ DD 040a01H
	DD	07340aH
	DD	07006320aH
xdata	ENDS
;	COMDAT xdata
xdata	SEGMENT
$unwind$?_Tidy@?$vector@NV?$allocator@N@std@@@std@@AEAAXXZ DD 020601H
	DD	030023206H
xdata	ENDS
;	COMDAT xdata
xdata	SEGMENT
$chain$1$?_Buy@?$vector@NV?$allocator@N@std@@@std@@AEAA_N_K@Z DD 021H
	DD	imagerel $LN117
	DD	imagerel $LN117+42
	DD	imagerel $unwind$?_Buy@?$vector@NV?$allocator@N@std@@@std@@AEAA_N_K@Z
xdata	ENDS
;	COMDAT xdata
xdata	SEGMENT
$chain$0$?_Buy@?$vector@NV?$allocator@N@std@@@std@@AEAA_N_K@Z DD 020521H
	DD	067405H
	DD	imagerel $LN117
	DD	imagerel $LN117+42
	DD	imagerel $unwind$?_Buy@?$vector@NV?$allocator@N@std@@@std@@AEAA_N_K@Z
xdata	ENDS
;	COMDAT xdata
xdata	SEGMENT
$unwind$?_Buy@?$vector@NV?$allocator@N@std@@@std@@AEAA_N_K@Z DD 020601H
	DD	030023206H
xdata	ENDS
;	COMDAT xdata
xdata	SEGMENT
$unwind$?_Udefault@?$vector@NV?$allocator@N@std@@@std@@AEAAPEANPEAN_K@Z DD 040a01H
	DD	06340aH
	DD	07006320aH
xdata	ENDS
;	COMDAT xdata
xdata	SEGMENT
$ip2state$??1_Sentry_base@?$basic_ostream@DU?$char_traits@D@std@@@std@@QEAA@XZ DD imagerel ??1_Sentry_base@?$basic_ostream@DU?$char_traits@D@std@@@std@@QEAA@XZ
	DD	0ffffffffH
xdata	ENDS
;	COMDAT CONST
CONST	SEGMENT
$cppxdata$??1_Sentry_base@?$basic_ostream@DU?$char_traits@D@std@@@std@@QEAA@XZ DD 019930522H
	DD	00H
	DD	00H
	DD	00H
	DD	00H
	DD	01H
	DD	imagerel $ip2state$??1_Sentry_base@?$basic_ostream@DU?$char_traits@D@std@@@std@@QEAA@XZ
	DD	020H
	DD	00H
	DD	05H
CONST	ENDS
;	COMDAT xdata
xdata	SEGMENT
$unwind$??1_Sentry_base@?$basic_ostream@DU?$char_traits@D@std@@@std@@QEAA@XZ DD 010d19H
	DD	06204H
	DD	imagerel __CxxFrameHandler3
	DD	imagerel $cppxdata$??1_Sentry_base@?$basic_ostream@DU?$char_traits@D@std@@@std@@QEAA@XZ
xdata	ENDS
;	COMDAT xdata
xdata	SEGMENT
$unwind$??0_Sentry_base@?$basic_ostream@DU?$char_traits@D@std@@@std@@QEAA@AEAV12@@Z DD 020601H
	DD	030023206H
xdata	ENDS
;	COMDAT xdata
xdata	SEGMENT
$unwind$?_Destroy@?$vector@U?$pair@V?$vector@NV?$allocator@N@std@@@std@@N@std@@V?$allocator@U?$pair@V?$vector@NV?$allocator@N@std@@@std@@N@std@@@2@@std@@AEAAXPEAU?$pair@V?$vector@NV?$allocator@N@std@@@std@@N@2@0@Z DD 040f01H
	DD	06340fH
	DD	0700b320fH
xdata	ENDS
;	COMDAT xdata
xdata	SEGMENT
$unwind$?deallocate@?$allocator@U?$pair@V?$vector@NV?$allocator@N@std@@@std@@N@std@@@std@@QEAAXQEAU?$pair@V?$vector@NV?$allocator@N@std@@@std@@N@2@_K@Z DD 010401H
	DD	04204H
xdata	ENDS
;	COMDAT xdata
xdata	SEGMENT
$unwind$?_Xlength@?$vector@NV?$allocator@N@std@@@std@@CAXXZ DD 010401H
	DD	04204H
xdata	ENDS
;	COMDAT xdata
xdata	SEGMENT
$unwind$?allocate@?$allocator@N@std@@QEAAPEAN_K@Z DD 010401H
	DD	04204H
xdata	ENDS
;	COMDAT xdata
xdata	SEGMENT
$unwind$?deallocate@?$allocator@N@std@@QEAAXQEAN_K@Z DD 010401H
	DD	04204H
xdata	ENDS
;	COMDAT xdata
xdata	SEGMENT
$unwind$??$make_pair@AEAV?$vector@NV?$allocator@N@std@@@std@@N@std@@YA?AU?$pair@V?$vector@NV?$allocator@N@std@@@std@@N@0@AEAV?$vector@NV?$allocator@N@std@@@0@$$QEAN@Z DD 040a01H
	DD	06340aH
	DD	07006320aH
xdata	ENDS
;	COMDAT xdata
xdata	SEGMENT
$unwind$??$map@V<lambda_d96185b9da9a7d2086bd47349d2635dc>@@PEBNNU?$List@U?$P@$0CA@$0CAAA@@@U?$List@U?$P@$0CA@$0BA@@@U?$List@U?$P@$0BA@$0CAA@@@U?$List@U?$P@$0BA@$00@@UEmptyList@@@@@@@@@@PEANNU2@@hof@@YAXV?$View@PEANNU?$List@U?$P@$0CA@$0CAAA@@@U?$List@U?$P@$0CA@$0BA@@@U?$List@U?$P@$0BA@$0CAA@@@U?$List@U?$P@$0BA@$00@@UEmptyList@@@@@@@@@@@@V<lambda_d96185b9da9a7d2086bd47349d2635dc>@@V?$View@PEBNNU?$List@U?$P@$0CA@$0CAAA@@@U?$List@U?$P@$0CA@$0BA@@@U?$List@U?$P@$0BA@$0CAA@@@U?$List@U?$P@$0BA@$00@@UEmptyList@@@@@@@@@@@@@Z DD 0d2401H
	DD	01f6424H
	DD	01e5424H
	DD	01d3424H
	DD	0160124H
	DD	0e01bf01dH
	DD	0c017d019H
	DD	07015H
xdata	ENDS
;	COMDAT xdata
xdata	SEGMENT
$unwind$??$?RV?$View@PEANNU?$List@U?$P@$0CA@$0BA@@@U?$List@U?$P@$0BA@$0CAA@@@U?$List@U?$P@$0BA@$00@@UEmptyList@@@@@@@@@@V?$View@PEBNNU?$List@U?$P@$0CA@$0BA@@@U?$List@U?$P@$0BA@$0CAA@@@U?$List@U?$P@$0BA@$00@@UEmptyList@@@@@@@@@@@<lambda_d96185b9da9a7d2086bd47349d2635dc>@@QEBAXV?$View@PEANNU?$List@U?$P@$0CA@$0BA@@@U?$List@U?$P@$0BA@$0CAA@@@U?$List@U?$P@$0BA@$00@@UEmptyList@@@@@@@@@@V?$View@PEBNNU?$List@U?$P@$0CA@$0BA@@@U?$List@U?$P@$0BA@$0CAA@@@U?$List@U?$P@$0BA@$00@@UEmptyList@@@@@@@@@@@Z DD 0b1b01H
	DD	018641bH
	DD	017541bH
	DD	016341bH
	DD	012011bH
	DD	0e012f014H
	DD	07010H
xdata	ENDS
;	COMDAT xdata
xdata	SEGMENT
$unwind$?catch$41@?0???$_Range_construct_or_tidy@PEBU?$pair@V?$vector@NV?$allocator@N@std@@@std@@N@std@@@?$vector@U?$pair@V?$vector@NV?$allocator@N@std@@@std@@N@std@@V?$allocator@U?$pair@V?$vector@NV?$allocator@N@std@@@std@@N@std@@@2@@std@@AEAAXPEBU?$pair@V?$vector@NV?$allocator@N@std@@@std@@N@1@0Uforward_iterator_tag@1@@Z@4HA DD 020a19H
	DD	05006520aH
	DD	imagerel __CxxFrameHandler3
	DD	imagerel $cppxdata$??$_Range_construct_or_tidy@PEBU?$pair@V?$vector@NV?$allocator@N@std@@@std@@N@std@@@?$vector@U?$pair@V?$vector@NV?$allocator@N@std@@@std@@N@std@@V?$allocator@U?$pair@V?$vector@NV?$allocator@N@std@@@std@@N@std@@@2@@std@@AEAAXPEBU?$pair@V?$vector@NV?$allocator@N@std@@@std@@N@1@0Uforward_iterator_tag@1@@Z
xdata	ENDS
;	COMDAT xdata
xdata	SEGMENT
$ip2state$??$_Range_construct_or_tidy@PEBU?$pair@V?$vector@NV?$allocator@N@std@@@std@@N@std@@@?$vector@U?$pair@V?$vector@NV?$allocator@N@std@@@std@@N@std@@V?$allocator@U?$pair@V?$vector@NV?$allocator@N@std@@@std@@N@std@@@2@@std@@AEAAXPEBU?$pair@V?$vector@NV?$allocator@N@std@@@std@@N@1@0Uforward_iterator_tag@1@@Z DD imagerel ??$_Range_construct_or_tidy@PEBU?$pair@V?$vector@NV?$allocator@N@std@@@std@@N@std@@@?$vector@U?$pair@V?$vector@NV?$allocator@N@std@@@std@@N@std@@V?$allocator@U?$pair@V?$vector@NV?$allocator@N@std@@@std@@N@std@@@2@@std@@AEAAXPEBU?$pair@V?$vector@NV?$allocator@N@std@@@std@@N@1@0Uforward_iterator_tag@1@@Z
	DD	0ffffffffH
	DD	imagerel ??$_Range_construct_or_tidy@PEBU?$pair@V?$vector@NV?$allocator@N@std@@@std@@N@std@@@?$vector@U?$pair@V?$vector@NV?$allocator@N@std@@@std@@N@std@@V?$allocator@U?$pair@V?$vector@NV?$allocator@N@std@@@std@@N@std@@@2@@std@@AEAAXPEBU?$pair@V?$vector@NV?$allocator@N@std@@@std@@N@1@0Uforward_iterator_tag@1@@Z+162
	DD	00H
	DD	imagerel ??$_Range_construct_or_tidy@PEBU?$pair@V?$vector@NV?$allocator@N@std@@@std@@N@std@@@?$vector@U?$pair@V?$vector@NV?$allocator@N@std@@@std@@N@std@@V?$allocator@U?$pair@V?$vector@NV?$allocator@N@std@@@std@@N@std@@@2@@std@@AEAAXPEBU?$pair@V?$vector@NV?$allocator@N@std@@@std@@N@1@0Uforward_iterator_tag@1@@Z+180
	DD	0ffffffffH
	DD	imagerel ?catch$41@?0???$_Range_construct_or_tidy@PEBU?$pair@V?$vector@NV?$allocator@N@std@@@std@@N@std@@@?$vector@U?$pair@V?$vector@NV?$allocator@N@std@@@std@@N@std@@V?$allocator@U?$pair@V?$vector@NV?$allocator@N@std@@@std@@N@std@@@2@@std@@AEAAXPEBU?$pair@V?$vector@NV?$allocator@N@std@@@std@@N@1@0Uforward_iterator_tag@1@@Z@4HA
	DD	00H
	DD	imagerel ?catch$41@?0???$_Range_construct_or_tidy@PEBU?$pair@V?$vector@NV?$allocator@N@std@@@std@@N@std@@@?$vector@U?$pair@V?$vector@NV?$allocator@N@std@@@std@@N@std@@V?$allocator@U?$pair@V?$vector@NV?$allocator@N@std@@@std@@N@std@@@2@@std@@AEAAXPEBU?$pair@V?$vector@NV?$allocator@N@std@@@std@@N@1@0Uforward_iterator_tag@1@@Z@4HA+13
	DD	01H
xdata	ENDS
;	COMDAT xdata
xdata	SEGMENT
$handlerMap$0$??$_Range_construct_or_tidy@PEBU?$pair@V?$vector@NV?$allocator@N@std@@@std@@N@std@@@?$vector@U?$pair@V?$vector@NV?$allocator@N@std@@@std@@N@std@@V?$allocator@U?$pair@V?$vector@NV?$allocator@N@std@@@std@@N@std@@@2@@std@@AEAAXPEBU?$pair@V?$vector@NV?$allocator@N@std@@@std@@N@1@0Uforward_iterator_tag@1@@Z DD 040H
	DD	00H
	DD	00H
	DD	imagerel ?catch$41@?0???$_Range_construct_or_tidy@PEBU?$pair@V?$vector@NV?$allocator@N@std@@@std@@N@std@@@?$vector@U?$pair@V?$vector@NV?$allocator@N@std@@@std@@N@std@@V?$allocator@U?$pair@V?$vector@NV?$allocator@N@std@@@std@@N@std@@@2@@std@@AEAAXPEBU?$pair@V?$vector@NV?$allocator@N@std@@@std@@N@1@0Uforward_iterator_tag@1@@Z@4HA
	DD	048H
xdata	ENDS
;	COMDAT xdata
xdata	SEGMENT
$tryMap$??$_Range_construct_or_tidy@PEBU?$pair@V?$vector@NV?$allocator@N@std@@@std@@N@std@@@?$vector@U?$pair@V?$vector@NV?$allocator@N@std@@@std@@N@std@@V?$allocator@U?$pair@V?$vector@NV?$allocator@N@std@@@std@@N@std@@@2@@std@@AEAAXPEBU?$pair@V?$vector@NV?$allocator@N@std@@@std@@N@1@0Uforward_iterator_tag@1@@Z DD 00H
	DD	00H
	DD	01H
	DD	01H
	DD	imagerel $handlerMap$0$??$_Range_construct_or_tidy@PEBU?$pair@V?$vector@NV?$allocator@N@std@@@std@@N@std@@@?$vector@U?$pair@V?$vector@NV?$allocator@N@std@@@std@@N@std@@V?$allocator@U?$pair@V?$vector@NV?$allocator@N@std@@@std@@N@std@@@2@@std@@AEAAXPEBU?$pair@V?$vector@NV?$allocator@N@std@@@std@@N@1@0Uforward_iterator_tag@1@@Z
xdata	ENDS
;	COMDAT xdata
xdata	SEGMENT
$stateUnwindMap$??$_Range_construct_or_tidy@PEBU?$pair@V?$vector@NV?$allocator@N@std@@@std@@N@std@@@?$vector@U?$pair@V?$vector@NV?$allocator@N@std@@@std@@N@std@@V?$allocator@U?$pair@V?$vector@NV?$allocator@N@std@@@std@@N@std@@@2@@std@@AEAAXPEBU?$pair@V?$vector@NV?$allocator@N@std@@@std@@N@1@0Uforward_iterator_tag@1@@Z DD 0ffffffffH
	DD	00H
	DD	0ffffffffH
	DD	00H
xdata	ENDS
;	COMDAT CONST
CONST	SEGMENT
$cppxdata$??$_Range_construct_or_tidy@PEBU?$pair@V?$vector@NV?$allocator@N@std@@@std@@N@std@@@?$vector@U?$pair@V?$vector@NV?$allocator@N@std@@@std@@N@std@@V?$allocator@U?$pair@V?$vector@NV?$allocator@N@std@@@std@@N@std@@@2@@std@@AEAAXPEBU?$pair@V?$vector@NV?$allocator@N@std@@@std@@N@1@0Uforward_iterator_tag@1@@Z DD 019930522H
	DD	02H
	DD	imagerel $stateUnwindMap$??$_Range_construct_or_tidy@PEBU?$pair@V?$vector@NV?$allocator@N@std@@@std@@N@std@@@?$vector@U?$pair@V?$vector@NV?$allocator@N@std@@@std@@N@std@@V?$allocator@U?$pair@V?$vector@NV?$allocator@N@std@@@std@@N@std@@@2@@std@@AEAAXPEBU?$pair@V?$vector@NV?$allocator@N@std@@@std@@N@1@0Uforward_iterator_tag@1@@Z
	DD	01H
	DD	imagerel $tryMap$??$_Range_construct_or_tidy@PEBU?$pair@V?$vector@NV?$allocator@N@std@@@std@@N@std@@@?$vector@U?$pair@V?$vector@NV?$allocator@N@std@@@std@@N@std@@V?$allocator@U?$pair@V?$vector@NV?$allocator@N@std@@@std@@N@std@@@2@@std@@AEAAXPEBU?$pair@V?$vector@NV?$allocator@N@std@@@std@@N@1@0Uforward_iterator_tag@1@@Z
	DD	05H
	DD	imagerel $ip2state$??$_Range_construct_or_tidy@PEBU?$pair@V?$vector@NV?$allocator@N@std@@@std@@N@std@@@?$vector@U?$pair@V?$vector@NV?$allocator@N@std@@@std@@N@std@@V?$allocator@U?$pair@V?$vector@NV?$allocator@N@std@@@std@@N@std@@@2@@std@@AEAAXPEBU?$pair@V?$vector@NV?$allocator@N@std@@@std@@N@1@0Uforward_iterator_tag@1@@Z
	DD	038H
	DD	00H
	DD	01H
CONST	ENDS
;	COMDAT xdata
xdata	SEGMENT
$unwind$??$_Range_construct_or_tidy@PEBU?$pair@V?$vector@NV?$allocator@N@std@@@std@@N@std@@@?$vector@U?$pair@V?$vector@NV?$allocator@N@std@@@std@@N@std@@V?$allocator@U?$pair@V?$vector@NV?$allocator@N@std@@@std@@N@std@@@2@@std@@AEAAXPEBU?$pair@V?$vector@NV?$allocator@N@std@@@std@@N@1@0Uforward_iterator_tag@1@@Z DD 061719H
	DD	0f3417H
	DD	0e0057209H
	DD	060027003H
	DD	imagerel __CxxFrameHandler3
	DD	imagerel $cppxdata$??$_Range_construct_or_tidy@PEBU?$pair@V?$vector@NV?$allocator@N@std@@@std@@N@std@@@?$vector@U?$pair@V?$vector@NV?$allocator@N@std@@@std@@N@std@@V?$allocator@U?$pair@V?$vector@NV?$allocator@N@std@@@std@@N@std@@@2@@std@@AEAAXPEBU?$pair@V?$vector@NV?$allocator@N@std@@@std@@N@1@0Uforward_iterator_tag@1@@Z
xdata	ENDS
;	COMDAT xdata
xdata	SEGMENT
$unwind$??$_Uninitialized_value_construct_n@PEAN_KV?$allocator@N@std@@@std@@YAPEANPEAN_KAEAV?$allocator@N@0@@Z DD 040a01H
	DD	06340aH
	DD	07006320aH
xdata	ENDS
;	COMDAT xdata
xdata	SEGMENT
$unwind$??$_Destroy_range@V?$allocator@U?$pair@V?$vector@NV?$allocator@N@std@@@std@@N@std@@@std@@@std@@YAXPEAU?$pair@V?$vector@NV?$allocator@N@std@@@std@@N@0@0AEAV?$allocator@U?$pair@V?$vector@NV?$allocator@N@std@@@std@@N@std@@@0@@Z DD 040f01H
	DD	06340fH
	DD	0700b320fH
xdata	ENDS
;	COMDAT xdata
xdata	SEGMENT
$unwind$?_Buy@?$vector@U?$pair@V?$vector@NV?$allocator@N@std@@@std@@N@std@@V?$allocator@U?$pair@V?$vector@NV?$allocator@N@std@@@std@@N@std@@@2@@std@@AEAA_N_K@Z DD 040a01H
	DD	06340aH
	DD	07006320aH
xdata	ENDS
;	COMDAT xdata
xdata	SEGMENT
$unwind$?_Xlength@?$vector@U?$pair@V?$vector@NV?$allocator@N@std@@@std@@N@std@@V?$allocator@U?$pair@V?$vector@NV?$allocator@N@std@@@std@@N@std@@@2@@std@@CAXXZ DD 010401H
	DD	04204H
xdata	ENDS
;	COMDAT xdata
xdata	SEGMENT
$unwind$?allocate@?$allocator@U?$pair@V?$vector@NV?$allocator@N@std@@@std@@N@std@@@std@@QEAAPEAU?$pair@V?$vector@NV?$allocator@N@std@@@std@@N@2@_K@Z DD 010401H
	DD	04204H
xdata	ENDS
;	COMDAT xdata
xdata	SEGMENT
$unwind$?catch$8@?0???$_Insert_string@DU?$char_traits@D@std@@_K@std@@YAAEAV?$basic_ostream@DU?$char_traits@D@std@@@0@AEAV10@QEBD_K@Z@4HA DD 020a19H
	DD	05006320aH
	DD	imagerel __CxxFrameHandler3
	DD	imagerel $cppxdata$??$_Insert_string@DU?$char_traits@D@std@@_K@std@@YAAEAV?$basic_ostream@DU?$char_traits@D@std@@@0@AEAV10@QEBD_K@Z
xdata	ENDS
;	COMDAT xdata
xdata	SEGMENT
$ip2state$??$_Insert_string@DU?$char_traits@D@std@@_K@std@@YAAEAV?$basic_ostream@DU?$char_traits@D@std@@@0@AEAV10@QEBD_K@Z DD imagerel ??$_Insert_string@DU?$char_traits@D@std@@_K@std@@YAAEAV?$basic_ostream@DU?$char_traits@D@std@@@0@AEAV10@QEBD_K@Z
	DD	0ffffffffH
	DD	imagerel ??$_Insert_string@DU?$char_traits@D@std@@_K@std@@YAAEAV?$basic_ostream@DU?$char_traits@D@std@@@0@AEAV10@QEBD_K@Z+103
	DD	00H
	DD	imagerel ??$_Insert_string@DU?$char_traits@D@std@@_K@std@@YAAEAV?$basic_ostream@DU?$char_traits@D@std@@@0@AEAV10@QEBD_K@Z+157
	DD	01H
	DD	imagerel ??$_Insert_string@DU?$char_traits@D@std@@_K@std@@YAAEAV?$basic_ostream@DU?$char_traits@D@std@@@0@AEAV10@QEBD_K@Z+171
	DD	02H
	DD	imagerel ??$_Insert_string@DU?$char_traits@D@std@@_K@std@@YAAEAV?$basic_ostream@DU?$char_traits@D@std@@@0@AEAV10@QEBD_K@Z+354
	DD	01H
	DD	imagerel ??$_Insert_string@DU?$char_traits@D@std@@_K@std@@YAAEAV?$basic_ostream@DU?$char_traits@D@std@@@0@AEAV10@QEBD_K@Z+395
	DD	04H
	DD	imagerel ??$_Insert_string@DU?$char_traits@D@std@@_K@std@@YAAEAV?$basic_ostream@DU?$char_traits@D@std@@@0@AEAV10@QEBD_K@Z+415
	DD	05H
	DD	imagerel ??$_Insert_string@DU?$char_traits@D@std@@_K@std@@YAAEAV?$basic_ostream@DU?$char_traits@D@std@@@0@AEAV10@QEBD_K@Z+439
	DD	0ffffffffH
	DD	imagerel ?catch$8@?0???$_Insert_string@DU?$char_traits@D@std@@_K@std@@YAAEAV?$basic_ostream@DU?$char_traits@D@std@@@0@AEAV10@QEBD_K@Z@4HA
	DD	00H
	DD	imagerel ?catch$8@?0???$_Insert_string@DU?$char_traits@D@std@@_K@std@@YAAEAV?$basic_ostream@DU?$char_traits@D@std@@@0@AEAV10@QEBD_K@Z@4HA+13
	DD	03H
	DD	imagerel ?catch$8@?0???$_Insert_string@DU?$char_traits@D@std@@_K@std@@YAAEAV?$basic_ostream@DU?$char_traits@D@std@@@0@AEAV10@QEBD_K@Z@4HA+42
	DD	00H
xdata	ENDS
;	COMDAT xdata
xdata	SEGMENT
$handlerMap$0$??$_Insert_string@DU?$char_traits@D@std@@_K@std@@YAAEAV?$basic_ostream@DU?$char_traits@D@std@@@0@AEAV10@QEBD_K@Z DD 040H
	DD	00H
	DD	00H
	DD	imagerel ?catch$8@?0???$_Insert_string@DU?$char_traits@D@std@@_K@std@@YAAEAV?$basic_ostream@DU?$char_traits@D@std@@@0@AEAV10@QEBD_K@Z@4HA
	DD	038H
xdata	ENDS
;	COMDAT xdata
xdata	SEGMENT
$tryMap$??$_Insert_string@DU?$char_traits@D@std@@_K@std@@YAAEAV?$basic_ostream@DU?$char_traits@D@std@@@0@AEAV10@QEBD_K@Z DD 02H
	DD	02H
	DD	03H
	DD	01H
	DD	imagerel $handlerMap$0$??$_Insert_string@DU?$char_traits@D@std@@_K@std@@YAAEAV?$basic_ostream@DU?$char_traits@D@std@@@0@AEAV10@QEBD_K@Z
xdata	ENDS
;	COMDAT xdata
xdata	SEGMENT
$stateUnwindMap$??$_Insert_string@DU?$char_traits@D@std@@_K@std@@YAAEAV?$basic_ostream@DU?$char_traits@D@std@@@0@AEAV10@QEBD_K@Z DD 0ffffffffH
	DD	imagerel ?dtor$1@?0???$_Insert_string@DU?$char_traits@D@std@@_K@std@@YAAEAV?$basic_ostream@DU?$char_traits@D@std@@@0@AEAV10@QEBD_K@Z@4HA
	DD	0ffffffffH
	DD	imagerel ?dtor$0@?0???$_Insert_string@DU?$char_traits@D@std@@_K@std@@YAAEAV?$basic_ostream@DU?$char_traits@D@std@@@0@AEAV10@QEBD_K@Z@4HA
	DD	01H
	DD	00H
	DD	01H
	DD	00H
	DD	0ffffffffH
	DD	imagerel __imp___std_terminate
	DD	04H
	DD	imagerel __imp___std_terminate
xdata	ENDS
;	COMDAT CONST
CONST	SEGMENT
$cppxdata$??$_Insert_string@DU?$char_traits@D@std@@_K@std@@YAAEAV?$basic_ostream@DU?$char_traits@D@std@@@0@AEAV10@QEBD_K@Z DD 019930522H
	DD	06H
	DD	imagerel $stateUnwindMap$??$_Insert_string@DU?$char_traits@D@std@@_K@std@@YAAEAV?$basic_ostream@DU?$char_traits@D@std@@@0@AEAV10@QEBD_K@Z
	DD	01H
	DD	imagerel $tryMap$??$_Insert_string@DU?$char_traits@D@std@@_K@std@@YAAEAV?$basic_ostream@DU?$char_traits@D@std@@@0@AEAV10@QEBD_K@Z
	DD	0bH
	DD	imagerel $ip2state$??$_Insert_string@DU?$char_traits@D@std@@_K@std@@YAAEAV?$basic_ostream@DU?$char_traits@D@std@@@0@AEAV10@QEBD_K@Z
	DD	020H
	DD	00H
	DD	01H
CONST	ENDS
;	COMDAT xdata
xdata	SEGMENT
$unwind$??$_Insert_string@DU?$char_traits@D@std@@_K@std@@YAAEAV?$basic_ostream@DU?$char_traits@D@std@@@0@AEAV10@QEBD_K@Z DD 081f19H
	DD	0f341fH
	DD	0f00d7211H
	DD	0c009e00bH
	DD	060067007H
	DD	imagerel __CxxFrameHandler3
	DD	imagerel $cppxdata$??$_Insert_string@DU?$char_traits@D@std@@_K@std@@YAAEAV?$basic_ostream@DU?$char_traits@D@std@@@0@AEAV10@QEBD_K@Z
xdata	ENDS
;	COMDAT xdata
xdata	SEGMENT
$unwind$??$?0AEAV?$vector@NV?$allocator@N@std@@@std@@NX$0A@@?$pair@V?$vector@NV?$allocator@N@std@@@std@@N@std@@QEAA@AEAV?$vector@NV?$allocator@N@std@@@1@$$QEAN@Z DD 040a01H
	DD	06340aH
	DD	07006320aH
xdata	ENDS
;	COMDAT xdata
xdata	SEGMENT
$unwind$??$map@V<lambda_7e04991c64d89450a9afdec7af8092d1>@@PEBNNU?$List@U?$P@$0CA@$0BA@@@U?$List@U?$P@$0CA@$0CAAA@@@U?$List@U?$P@$0BA@$00@@U?$List@U?$P@$0BA@$0CAA@@@UEmptyList@@@@@@@@@@PEANNU?$List@U?$P@$0CA@$0BA@@@U?$List@U?$P@$0BA@$0CAA@@@U?$List@U?$P@$0BA@$00@@UEmptyList@@@@@@@@@hof@@YAXV?$View@PEANNU?$List@U?$P@$0CA@$0BA@@@U?$List@U?$P@$0BA@$0CAA@@@U?$List@U?$P@$0BA@$00@@UEmptyList@@@@@@@@@@V<lambda_7e04991c64d89450a9afdec7af8092d1>@@V?$View@PEBNNU?$List@U?$P@$0CA@$0BA@@@U?$List@U?$P@$0CA@$0CAAA@@@U?$List@U?$P@$0BA@$00@@U?$List@U?$P@$0BA@$0CAA@@@UEmptyList@@@@@@@@@@@@@Z DD 091801H
	DD	0167418H
	DD	0156418H
	DD	0143418H
	DD	0120118H
	DD	0e011H
xdata	ENDS
;	COMDAT xdata
xdata	SEGMENT
$unwind$??$?RV?$View@PEANNU?$List@U?$P@$0BA@$0CAA@@@U?$List@U?$P@$0BA@$00@@UEmptyList@@@@@@@@V?$View@PEBNNU?$List@U?$P@$0CA@$0CAAA@@@U?$List@U?$P@$0BA@$00@@U?$List@U?$P@$0BA@$0CAA@@@UEmptyList@@@@@@@@@@@<lambda_7e04991c64d89450a9afdec7af8092d1>@@QEBAXV?$View@PEANNU?$List@U?$P@$0BA@$0CAA@@@U?$List@U?$P@$0BA@$00@@UEmptyList@@@@@@@@V?$View@PEBNNU?$List@U?$P@$0CA@$0CAAA@@@U?$List@U?$P@$0BA@$00@@U?$List@U?$P@$0BA@$0CAA@@@UEmptyList@@@@@@@@@@@Z DD 010401H
	DD	0e204H
xdata	ENDS
;	COMDAT xdata
xdata	SEGMENT
$unwind$??$_Ucopy@PEBU?$pair@V?$vector@NV?$allocator@N@std@@@std@@N@std@@@?$vector@U?$pair@V?$vector@NV?$allocator@N@std@@@std@@N@std@@V?$allocator@U?$pair@V?$vector@NV?$allocator@N@std@@@std@@N@std@@@2@@std@@AEAAPEAU?$pair@V?$vector@NV?$allocator@N@std@@@std@@N@1@PEBU21@0PEAU21@@Z DD 010401H
	DD	06204H
xdata	ENDS
;	COMDAT xdata
xdata	SEGMENT
$unwind$??$_Uninitialized_value_construct_n1@PEAN_KV?$allocator@N@std@@@std@@YAPEANPEAN_KAEAV?$allocator@N@0@U?$integral_constant@_N$00@0@@Z DD 040a01H
	DD	06340aH
	DD	07006320aH
xdata	ENDS
;	COMDAT xdata
xdata	SEGMENT
$unwind$??$_Destroy_range1@V?$allocator@U?$pair@V?$vector@NV?$allocator@N@std@@@std@@N@std@@@std@@@std@@YAXPEAU?$pair@V?$vector@NV?$allocator@N@std@@@std@@N@0@0AEAV?$allocator@U?$pair@V?$vector@NV?$allocator@N@std@@@std@@N@std@@@0@U?$integral_constant@_N$0A@@0@@Z DD 040f01H
	DD	06340fH
	DD	0700b320fH
xdata	ENDS
;	COMDAT xdata
xdata	SEGMENT
$chain$1$??0?$vector@NV?$allocator@N@std@@@std@@QEAA@AEBV01@@Z DD 021H
	DD	imagerel $LN111
	DD	imagerel $LN111+59
	DD	imagerel $unwind$??0?$vector@NV?$allocator@N@std@@@std@@QEAA@AEBV01@@Z
xdata	ENDS
;	COMDAT xdata
xdata	SEGMENT
$chain$0$??0?$vector@NV?$allocator@N@std@@@std@@QEAA@AEBV01@@Z DD 020521H
	DD	087405H
	DD	imagerel $LN111
	DD	imagerel $LN111+59
	DD	imagerel $unwind$??0?$vector@NV?$allocator@N@std@@@std@@QEAA@AEBV01@@Z
xdata	ENDS
;	COMDAT xdata
xdata	SEGMENT
$unwind$??0?$vector@NV?$allocator@N@std@@@std@@QEAA@AEBV01@@Z DD 040a01H
	DD	09340aH
	DD	06006320aH
xdata	ENDS
;	COMDAT xdata
xdata	SEGMENT
$unwind$??$rnz@V?$View@PEANNU?$List@U?$P@$0BA@$0CAA@@@U?$List@U?$P@$0BA@$00@@UEmptyList@@@@@@@@V?$View@PEANNU?$List@U?$P@$0BA@$0BA@@@U?$List@U?$P@$0BA@$00@@UEmptyList@@@@@@@@V<lambda_82709c2af490acbaaecbe567606e69e8>@@V<lambda_7ef7f5917424a38ce3010ad89fbaf103>@@PEBNNU?$List@U?$P@$0CA@$0BA@@@U?$List@U?$P@$0BA@$0CAA@@@U?$List@U?$P@$0BA@$00@@UEmptyList@@@@@@@@V?$View@PEBNNU?$List@U?$P@$0CA@$0CAAA@@@U?$List@U?$P@$0BA@$00@@U?$List@U?$P@$0BA@$0CAA@@@UEmptyList@@@@@@@@@@@hof@@YAXV?$View@PEANNU?$List@U?$P@$0BA@$0CAA@@@U?$List@U?$P@$0BA@$00@@UEmptyList@@@@@@@@V?$View@PEANNU?$List@U?$P@$0BA@$0BA@@@U?$List@U?$P@$0BA@$00@@UEmptyList@@@@@@@@V<lambda_82709c2af490acbaaecbe567606e69e8>@@V<lambda_7ef7f5917424a38ce3010ad89fbaf103>@@V?$View@PEBNNU?$List@U?$P@$0CA@$0BA@@@U?$List@U?$P@$0BA@$0CAA@@@U?$List@U?$P@$0BA@$00@@UEmptyList@@@@@@@@@@V?$View@PEBNNU?$List@U?$P@$0CA@$0CAAA@@@U?$List@U?$P@$0BA@$00@@U?$List@U?$P@$0BA@$0CAA@@@UEmptyList@@@@@@@@@@@Z DD 0b2601H
	DD	02c3426H
	DD	0220126H
	DD	0e018f01aH
	DD	0c014d016H
	DD	060117012H
	DD	05010H
xdata	ENDS
;	COMDAT xdata
xdata	SEGMENT
$unwind$??$?RV?$View@PEANNU?$List@U?$P@$0BA@$0CAA@@@U?$List@U?$P@$0BA@$00@@UEmptyList@@@@@@@@V?$View@PEBNNU?$List@U?$P@$0BA@$0CAA@@@U?$List@U?$P@$0BA@$00@@UEmptyList@@@@@@@@V?$View@PEBNNU?$List@U?$P@$0BA@$00@@U?$List@U?$P@$0BA@$0CAA@@@UEmptyList@@@@@@@@@<lambda_7ef7f5917424a38ce3010ad89fbaf103>@@QEBAXV?$View@PEANNU?$List@U?$P@$0BA@$0CAA@@@U?$List@U?$P@$0BA@$00@@UEmptyList@@@@@@@@V?$View@PEBNNU?$List@U?$P@$0BA@$0CAA@@@U?$List@U?$P@$0BA@$00@@UEmptyList@@@@@@@@V?$View@PEBNNU?$List@U?$P@$0BA@$00@@U?$List@U?$P@$0BA@$0CAA@@@UEmptyList@@@@@@@@@Z DD 0d1f01H
	DD	01e641fH
	DD	01d541fH
	DD	01c341fH
	DD	016011fH
	DD	0e016f018H
	DD	0c012d014H
	DD	07010H
xdata	ENDS
;	COMDAT xdata
xdata	SEGMENT
$unwind$??$?RV?$View@PEANNU?$List@U?$P@$0BA@$0BA@@@U?$List@U?$P@$0BA@$00@@UEmptyList@@@@@@@@V?$View@PEBNNU?$List@U?$P@$0BA@$0CAA@@@U?$List@U?$P@$0BA@$00@@UEmptyList@@@@@@@@V?$View@PEBNNU?$List@U?$P@$0BA@$00@@U?$List@U?$P@$0BA@$0CAA@@@UEmptyList@@@@@@@@@<lambda_7ef7f5917424a38ce3010ad89fbaf103>@@QEBAXV?$View@PEANNU?$List@U?$P@$0BA@$0BA@@@U?$List@U?$P@$0BA@$00@@UEmptyList@@@@@@@@V?$View@PEBNNU?$List@U?$P@$0BA@$0CAA@@@U?$List@U?$P@$0BA@$00@@UEmptyList@@@@@@@@V?$View@PEBNNU?$List@U?$P@$0BA@$00@@U?$List@U?$P@$0BA@$0CAA@@@UEmptyList@@@@@@@@@Z DD 0d1f01H
	DD	01e641fH
	DD	01d541fH
	DD	01c341fH
	DD	016011fH
	DD	0e016f018H
	DD	0c012d014H
	DD	07010H
xdata	ENDS
;	COMDAT xdata
xdata	SEGMENT
$unwind$??$?RV?$View@PEANNU?$List@U?$P@$0BA@$0CAA@@@U?$List@U?$P@$0BA@$00@@UEmptyList@@@@@@@@V0@V?$View@PEANNU?$List@U?$P@$0BA@$0BA@@@U?$List@U?$P@$0BA@$00@@UEmptyList@@@@@@@@@<lambda_82709c2af490acbaaecbe567606e69e8>@@QEBAXV?$View@PEANNU?$List@U?$P@$0BA@$0CAA@@@U?$List@U?$P@$0BA@$00@@UEmptyList@@@@@@@@0V?$View@PEANNU?$List@U?$P@$0BA@$0BA@@@U?$List@U?$P@$0BA@$00@@UEmptyList@@@@@@@@@Z DD 061201H
	DD	0136412H
	DD	0123412H
	DD	0700bf212H
xdata	ENDS
;	COMDAT xdata
xdata	SEGMENT
$unwind$??$_Uninitialized_copy@PEBU?$pair@V?$vector@NV?$allocator@N@std@@@std@@N@std@@PEAU12@V?$allocator@U?$pair@V?$vector@NV?$allocator@N@std@@@std@@N@std@@@2@@std@@YAPEAU?$pair@V?$vector@NV?$allocator@N@std@@@std@@N@0@PEBU10@0PEAU10@AEAV?$allocator@U?$pair@V?$vector@NV?$allocator@N@std@@@std@@N@std@@@0@@Z DD 011319H
	DD	08204H
	DD	imagerel __GSHandlerCheck
	DD	030H
xdata	ENDS
;	COMDAT xdata
xdata	SEGMENT
$unwind$??$_Zero_range@PEAN@std@@YAPEANPEAN0@Z DD 020601H
	DD	030023206H
xdata	ENDS
;	COMDAT xdata
xdata	SEGMENT
$unwind$??$_Ucopy@PEAN@?$vector@NV?$allocator@N@std@@@std@@AEAAPEANPEAN00@Z DD 040a01H
	DD	06340aH
	DD	07006320aH
xdata	ENDS
;	COMDAT xdata
xdata	SEGMENT
$unwind$??_G?$pair@V?$vector@NV?$allocator@N@std@@@std@@N@std@@QEAAPEAXI@Z DD 020601H
	DD	030023206H
xdata	ENDS
;	COMDAT xdata
xdata	SEGMENT
$unwind$??$map@V<lambda_eb40f87bcb40b8de81a9cd57a38429ae>@@PEBNNU?$List@U?$P@$0BA@$0CAA@@@U?$List@U?$P@$0BA@$00@@UEmptyList@@@@@@PEANNU2@@hof@@YAXV?$View@PEANNU?$List@U?$P@$0BA@$0CAA@@@U?$List@U?$P@$0BA@$00@@UEmptyList@@@@@@@@V<lambda_eb40f87bcb40b8de81a9cd57a38429ae>@@V?$View@PEBNNU?$List@U?$P@$0BA@$0CAA@@@U?$List@U?$P@$0BA@$00@@UEmptyList@@@@@@@@@Z DD 0d1f01H
	DD	01e641fH
	DD	01d541fH
	DD	01c341fH
	DD	016011fH
	DD	0e016f018H
	DD	0c012d014H
	DD	07010H
xdata	ENDS
;	COMDAT xdata
xdata	SEGMENT
$unwind$??$?RV?$View@PEANNU?$List@U?$P@$0BA@$00@@UEmptyList@@@@@@V?$View@PEBNNU?$List@U?$P@$0BA@$00@@UEmptyList@@@@@@@<lambda_eb40f87bcb40b8de81a9cd57a38429ae>@@QEBAXV?$View@PEANNU?$List@U?$P@$0BA@$00@@UEmptyList@@@@@@V?$View@PEBNNU?$List@U?$P@$0BA@$00@@UEmptyList@@@@@@@Z DD 0b1d01H
	DD	017741dH
	DD	016641dH
	DD	015541dH
	DD	014341dH
	DD	012011dH
	DD	0e016H
xdata	ENDS
;	COMDAT xdata
xdata	SEGMENT
$unwind$??$map@V<lambda_34aff3510488d97e7cf1c072c51f11e0>@@PEBNNU?$List@U?$P@$0BA@$0CAA@@@U?$List@U?$P@$0BA@$00@@UEmptyList@@@@@@PEANNU?$List@U?$P@$0BA@$0BA@@@U?$List@U?$P@$0BA@$00@@UEmptyList@@@@@@@hof@@YAXV?$View@PEANNU?$List@U?$P@$0BA@$0BA@@@U?$List@U?$P@$0BA@$00@@UEmptyList@@@@@@@@V<lambda_34aff3510488d97e7cf1c072c51f11e0>@@V?$View@PEBNNU?$List@U?$P@$0BA@$0CAA@@@U?$List@U?$P@$0BA@$00@@UEmptyList@@@@@@@@@Z DD 0d2401H
	DD	01f6424H
	DD	01e5424H
	DD	01d3424H
	DD	0160124H
	DD	0e01bf01dH
	DD	0c017d019H
	DD	07015H
xdata	ENDS
;	COMDAT xdata
xdata	SEGMENT
$unwind$??$?RV?$View@PEANNU?$List@U?$P@$0BA@$00@@UEmptyList@@@@@@V?$View@PEBNNU?$List@U?$P@$0BA@$00@@UEmptyList@@@@@@@<lambda_34aff3510488d97e7cf1c072c51f11e0>@@QEBAXV?$View@PEANNU?$List@U?$P@$0BA@$00@@UEmptyList@@@@@@V?$View@PEBNNU?$List@U?$P@$0BA@$00@@UEmptyList@@@@@@@Z DD 0b1d01H
	DD	017741dH
	DD	016641dH
	DD	015541dH
	DD	014341dH
	DD	012011dH
	DD	0e016H
xdata	ENDS
;	COMDAT xdata
xdata	SEGMENT
$unwind$??$zip@V?$View@PEANNU?$List@U?$P@$0BA@$0CAA@@@U?$List@U?$P@$0BA@$00@@UEmptyList@@@@@@@@V<lambda_b1116c9adf3516ba3c36d924ce54a452>@@PEANNU?$List@U?$P@$0BA@$0CAA@@@U?$List@U?$P@$0BA@$00@@UEmptyList@@@@@@V?$View@PEANNU?$List@U?$P@$0BA@$0BA@@@U?$List@U?$P@$0BA@$00@@UEmptyList@@@@@@@@@hof@@YAXV?$View@PEANNU?$List@U?$P@$0BA@$0CAA@@@U?$List@U?$P@$0BA@$00@@UEmptyList@@@@@@@@V<lambda_b1116c9adf3516ba3c36d924ce54a452>@@0V?$View@PEANNU?$List@U?$P@$0BA@$0BA@@@U?$List@U?$P@$0BA@$00@@UEmptyList@@@@@@@@@Z DD 0a1d01H
	DD	015e41dH
	DD	014741dH
	DD	013641dH
	DD	012341dH
	DD	0f016f21dH
xdata	ENDS
;	COMDAT xdata
xdata	SEGMENT
$unwind$??$?RV?$View@PEANNU?$List@U?$P@$0BA@$00@@UEmptyList@@@@@@V0@V0@@<lambda_b1116c9adf3516ba3c36d924ce54a452>@@QEBAXV?$View@PEANNU?$List@U?$P@$0BA@$00@@UEmptyList@@@@@@00@Z DD 010401H
	DD	0a204H
xdata	ENDS
;	COMDAT xdata
xdata	SEGMENT
$unwind$?catch$3@?0???$_Uninitialized_copy_al_unchecked@PEBU?$pair@V?$vector@NV?$allocator@N@std@@@std@@N@std@@PEAU12@V?$allocator@U?$pair@V?$vector@NV?$allocator@N@std@@@std@@N@std@@@2@@std@@YAPEAU?$pair@V?$vector@NV?$allocator@N@std@@@std@@N@0@PEBU10@0PEAU10@AEAV?$allocator@U?$pair@V?$vector@NV?$allocator@N@std@@@std@@N@std@@@0@U_General_ptr_iterator_tag@0@U_Unused_parameter@0@@Z@4HA DD 020a19H
	DD	05006320aH
	DD	imagerel __CxxFrameHandler3
	DD	imagerel $cppxdata$??$_Uninitialized_copy_al_unchecked@PEBU?$pair@V?$vector@NV?$allocator@N@std@@@std@@N@std@@PEAU12@V?$allocator@U?$pair@V?$vector@NV?$allocator@N@std@@@std@@N@std@@@2@@std@@YAPEAU?$pair@V?$vector@NV?$allocator@N@std@@@std@@N@0@PEBU10@0PEAU10@AEAV?$allocator@U?$pair@V?$vector@NV?$allocator@N@std@@@std@@N@std@@@0@U_General_ptr_iterator_tag@0@U_Unused_parameter@0@@Z
xdata	ENDS
;	COMDAT xdata
xdata	SEGMENT
$unwind$?dtor$0@?0???$_Uninitialized_copy_al_unchecked@PEBU?$pair@V?$vector@NV?$allocator@N@std@@@std@@N@std@@PEAU12@V?$allocator@U?$pair@V?$vector@NV?$allocator@N@std@@@std@@N@std@@@2@@std@@YAPEAU?$pair@V?$vector@NV?$allocator@N@std@@@std@@N@0@PEBU10@0PEAU10@AEAV?$allocator@U?$pair@V?$vector@NV?$allocator@N@std@@@std@@N@std@@@0@U_General_ptr_iterator_tag@0@U_Unused_parameter@0@@Z@4HA DD 020601H
	DD	050023206H
xdata	ENDS
;	COMDAT xdata
xdata	SEGMENT
$ip2state$??$_Uninitialized_copy_al_unchecked@PEBU?$pair@V?$vector@NV?$allocator@N@std@@@std@@N@std@@PEAU12@V?$allocator@U?$pair@V?$vector@NV?$allocator@N@std@@@std@@N@std@@@2@@std@@YAPEAU?$pair@V?$vector@NV?$allocator@N@std@@@std@@N@0@PEBU10@0PEAU10@AEAV?$allocator@U?$pair@V?$vector@NV?$allocator@N@std@@@std@@N@std@@@0@U_General_ptr_iterator_tag@0@U_Unused_parameter@0@@Z DD imagerel ??$_Uninitialized_copy_al_unchecked@PEBU?$pair@V?$vector@NV?$allocator@N@std@@@std@@N@std@@PEAU12@V?$allocator@U?$pair@V?$vector@NV?$allocator@N@std@@@std@@N@std@@@2@@std@@YAPEAU?$pair@V?$vector@NV?$allocator@N@std@@@std@@N@0@PEBU10@0PEAU10@AEAV?$allocator@U?$pair@V?$vector@NV?$allocator@N@std@@@std@@N@std@@@0@U_General_ptr_iterator_tag@0@U_Unused_parameter@0@@Z
	DD	0ffffffffH
	DD	imagerel ??$_Uninitialized_copy_al_unchecked@PEBU?$pair@V?$vector@NV?$allocator@N@std@@@std@@N@std@@PEAU12@V?$allocator@U?$pair@V?$vector@NV?$allocator@N@std@@@std@@N@std@@@2@@std@@YAPEAU?$pair@V?$vector@NV?$allocator@N@std@@@std@@N@0@PEBU10@0PEAU10@AEAV?$allocator@U?$pair@V?$vector@NV?$allocator@N@std@@@std@@N@std@@@0@U_General_ptr_iterator_tag@0@U_Unused_parameter@0@@Z+40
	DD	00H
	DD	imagerel ??$_Uninitialized_copy_al_unchecked@PEBU?$pair@V?$vector@NV?$allocator@N@std@@@std@@N@std@@PEAU12@V?$allocator@U?$pair@V?$vector@NV?$allocator@N@std@@@std@@N@std@@@2@@std@@YAPEAU?$pair@V?$vector@NV?$allocator@N@std@@@std@@N@0@PEBU10@0PEAU10@AEAV?$allocator@U?$pair@V?$vector@NV?$allocator@N@std@@@std@@N@std@@@0@U_General_ptr_iterator_tag@0@U_Unused_parameter@0@@Z+50
	DD	01H
	DD	imagerel ??$_Uninitialized_copy_al_unchecked@PEBU?$pair@V?$vector@NV?$allocator@N@std@@@std@@N@std@@PEAU12@V?$allocator@U?$pair@V?$vector@NV?$allocator@N@std@@@std@@N@std@@@2@@std@@YAPEAU?$pair@V?$vector@NV?$allocator@N@std@@@std@@N@0@PEBU10@0PEAU10@AEAV?$allocator@U?$pair@V?$vector@NV?$allocator@N@std@@@std@@N@std@@@0@U_General_ptr_iterator_tag@0@U_Unused_parameter@0@@Z+69
	DD	00H
	DD	imagerel ??$_Uninitialized_copy_al_unchecked@PEBU?$pair@V?$vector@NV?$allocator@N@std@@@std@@N@std@@PEAU12@V?$allocator@U?$pair@V?$vector@NV?$allocator@N@std@@@std@@N@std@@@2@@std@@YAPEAU?$pair@V?$vector@NV?$allocator@N@std@@@std@@N@0@PEBU10@0PEAU10@AEAV?$allocator@U?$pair@V?$vector@NV?$allocator@N@std@@@std@@N@std@@@0@U_General_ptr_iterator_tag@0@U_Unused_parameter@0@@Z+84
	DD	0ffffffffH
	DD	imagerel ?catch$3@?0???$_Uninitialized_copy_al_unchecked@PEBU?$pair@V?$vector@NV?$allocator@N@std@@@std@@N@std@@PEAU12@V?$allocator@U?$pair@V?$vector@NV?$allocator@N@std@@@std@@N@std@@@2@@std@@YAPEAU?$pair@V?$vector@NV?$allocator@N@std@@@std@@N@0@PEBU10@0PEAU10@AEAV?$allocator@U?$pair@V?$vector@NV?$allocator@N@std@@@std@@N@std@@@0@U_General_ptr_iterator_tag@0@U_Unused_parameter@0@@Z@4HA
	DD	00H
	DD	imagerel ?catch$3@?0???$_Uninitialized_copy_al_unchecked@PEBU?$pair@V?$vector@NV?$allocator@N@std@@@std@@N@std@@PEAU12@V?$allocator@U?$pair@V?$vector@NV?$allocator@N@std@@@std@@N@std@@@2@@std@@YAPEAU?$pair@V?$vector@NV?$allocator@N@std@@@std@@N@0@PEBU10@0PEAU10@AEAV?$allocator@U?$pair@V?$vector@NV?$allocator@N@std@@@std@@N@std@@@0@U_General_ptr_iterator_tag@0@U_Unused_parameter@0@@Z@4HA+13
	DD	02H
xdata	ENDS
;	COMDAT xdata
xdata	SEGMENT
$handlerMap$0$??$_Uninitialized_copy_al_unchecked@PEBU?$pair@V?$vector@NV?$allocator@N@std@@@std@@N@std@@PEAU12@V?$allocator@U?$pair@V?$vector@NV?$allocator@N@std@@@std@@N@std@@@2@@std@@YAPEAU?$pair@V?$vector@NV?$allocator@N@std@@@std@@N@0@PEBU10@0PEAU10@AEAV?$allocator@U?$pair@V?$vector@NV?$allocator@N@std@@@std@@N@std@@@0@U_General_ptr_iterator_tag@0@U_Unused_parameter@0@@Z DD 040H
	DD	00H
	DD	00H
	DD	imagerel ?catch$3@?0???$_Uninitialized_copy_al_unchecked@PEBU?$pair@V?$vector@NV?$allocator@N@std@@@std@@N@std@@PEAU12@V?$allocator@U?$pair@V?$vector@NV?$allocator@N@std@@@std@@N@std@@@2@@std@@YAPEAU?$pair@V?$vector@NV?$allocator@N@std@@@std@@N@0@PEBU10@0PEAU10@AEAV?$allocator@U?$pair@V?$vector@NV?$allocator@N@std@@@std@@N@std@@@0@U_General_ptr_iterator_tag@0@U_Unused_parameter@0@@Z@4HA
	DD	038H
xdata	ENDS
;	COMDAT xdata
xdata	SEGMENT
$tryMap$??$_Uninitialized_copy_al_unchecked@PEBU?$pair@V?$vector@NV?$allocator@N@std@@@std@@N@std@@PEAU12@V?$allocator@U?$pair@V?$vector@NV?$allocator@N@std@@@std@@N@std@@@2@@std@@YAPEAU?$pair@V?$vector@NV?$allocator@N@std@@@std@@N@0@PEBU10@0PEAU10@AEAV?$allocator@U?$pair@V?$vector@NV?$allocator@N@std@@@std@@N@std@@@0@U_General_ptr_iterator_tag@0@U_Unused_parameter@0@@Z DD 00H
	DD	01H
	DD	02H
	DD	01H
	DD	imagerel $handlerMap$0$??$_Uninitialized_copy_al_unchecked@PEBU?$pair@V?$vector@NV?$allocator@N@std@@@std@@N@std@@PEAU12@V?$allocator@U?$pair@V?$vector@NV?$allocator@N@std@@@std@@N@std@@@2@@std@@YAPEAU?$pair@V?$vector@NV?$allocator@N@std@@@std@@N@0@PEBU10@0PEAU10@AEAV?$allocator@U?$pair@V?$vector@NV?$allocator@N@std@@@std@@N@std@@@0@U_General_ptr_iterator_tag@0@U_Unused_parameter@0@@Z
xdata	ENDS
;	COMDAT xdata
xdata	SEGMENT
$stateUnwindMap$??$_Uninitialized_copy_al_unchecked@PEBU?$pair@V?$vector@NV?$allocator@N@std@@@std@@N@std@@PEAU12@V?$allocator@U?$pair@V?$vector@NV?$allocator@N@std@@@std@@N@std@@@2@@std@@YAPEAU?$pair@V?$vector@NV?$allocator@N@std@@@std@@N@0@PEBU10@0PEAU10@AEAV?$allocator@U?$pair@V?$vector@NV?$allocator@N@std@@@std@@N@std@@@0@U_General_ptr_iterator_tag@0@U_Unused_parameter@0@@Z DD 0ffffffffH
	DD	00H
	DD	00H
	DD	imagerel ?dtor$0@?0???$_Uninitialized_copy_al_unchecked@PEBU?$pair@V?$vector@NV?$allocator@N@std@@@std@@N@std@@PEAU12@V?$allocator@U?$pair@V?$vector@NV?$allocator@N@std@@@std@@N@std@@@2@@std@@YAPEAU?$pair@V?$vector@NV?$allocator@N@std@@@std@@N@0@PEBU10@0PEAU10@AEAV?$allocator@U?$pair@V?$vector@NV?$allocator@N@std@@@std@@N@std@@@0@U_General_ptr_iterator_tag@0@U_Unused_parameter@0@@Z@4HA
	DD	0ffffffffH
	DD	00H
xdata	ENDS
;	COMDAT CONST
CONST	SEGMENT
$cppxdata$??$_Uninitialized_copy_al_unchecked@PEBU?$pair@V?$vector@NV?$allocator@N@std@@@std@@N@std@@PEAU12@V?$allocator@U?$pair@V?$vector@NV?$allocator@N@std@@@std@@N@std@@@2@@std@@YAPEAU?$pair@V?$vector@NV?$allocator@N@std@@@std@@N@0@PEBU10@0PEAU10@AEAV?$allocator@U?$pair@V?$vector@NV?$allocator@N@std@@@std@@N@std@@@0@U_General_ptr_iterator_tag@0@U_Unused_parameter@0@@Z DD 019930522H
	DD	03H
	DD	imagerel $stateUnwindMap$??$_Uninitialized_copy_al_unchecked@PEBU?$pair@V?$vector@NV?$allocator@N@std@@@std@@N@std@@PEAU12@V?$allocator@U?$pair@V?$vector@NV?$allocator@N@std@@@std@@N@std@@@2@@std@@YAPEAU?$pair@V?$vector@NV?$allocator@N@std@@@std@@N@0@PEBU10@0PEAU10@AEAV?$allocator@U?$pair@V?$vector@NV?$allocator@N@std@@@std@@N@std@@@0@U_General_ptr_iterator_tag@0@U_Unused_parameter@0@@Z
	DD	01H
	DD	imagerel $tryMap$??$_Uninitialized_copy_al_unchecked@PEBU?$pair@V?$vector@NV?$allocator@N@std@@@std@@N@std@@PEAU12@V?$allocator@U?$pair@V?$vector@NV?$allocator@N@std@@@std@@N@std@@@2@@std@@YAPEAU?$pair@V?$vector@NV?$allocator@N@std@@@std@@N@0@PEBU10@0PEAU10@AEAV?$allocator@U?$pair@V?$vector@NV?$allocator@N@std@@@std@@N@std@@@0@U_General_ptr_iterator_tag@0@U_Unused_parameter@0@@Z
	DD	07H
	DD	imagerel $ip2state$??$_Uninitialized_copy_al_unchecked@PEBU?$pair@V?$vector@NV?$allocator@N@std@@@std@@N@std@@PEAU12@V?$allocator@U?$pair@V?$vector@NV?$allocator@N@std@@@std@@N@std@@@2@@std@@YAPEAU?$pair@V?$vector@NV?$allocator@N@std@@@std@@N@0@PEBU10@0PEAU10@AEAV?$allocator@U?$pair@V?$vector@NV?$allocator@N@std@@@std@@N@std@@@0@U_General_ptr_iterator_tag@0@U_Unused_parameter@0@@Z
	DD	020H
	DD	00H
	DD	01H
CONST	ENDS
;	COMDAT xdata
xdata	SEGMENT
$unwind$??$_Uninitialized_copy_al_unchecked@PEBU?$pair@V?$vector@NV?$allocator@N@std@@@std@@N@std@@PEAU12@V?$allocator@U?$pair@V?$vector@NV?$allocator@N@std@@@std@@N@std@@@2@@std@@YAPEAU?$pair@V?$vector@NV?$allocator@N@std@@@std@@N@0@PEBU10@0PEAU10@AEAV?$allocator@U?$pair@V?$vector@NV?$allocator@N@std@@@std@@N@std@@@0@U_General_ptr_iterator_tag@0@U_Unused_parameter@0@@Z DD 041a19H
	DD	0700d5211H
	DD	0300b600cH
	DD	imagerel __CxxFrameHandler3
	DD	imagerel $cppxdata$??$_Uninitialized_copy_al_unchecked@PEBU?$pair@V?$vector@NV?$allocator@N@std@@@std@@N@std@@PEAU12@V?$allocator@U?$pair@V?$vector@NV?$allocator@N@std@@@std@@N@std@@@2@@std@@YAPEAU?$pair@V?$vector@NV?$allocator@N@std@@@std@@N@0@PEBU10@0PEAU10@AEAV?$allocator@U?$pair@V?$vector@NV?$allocator@N@std@@@std@@N@std@@@0@U_General_ptr_iterator_tag@0@U_Unused_parameter@0@@Z
xdata	ENDS
;	COMDAT xdata
xdata	SEGMENT
$unwind$??$_Uninitialized_copy@PEANPEANV?$allocator@N@std@@@std@@YAPEANPEAN00AEAV?$allocator@N@0@@Z DD 040a01H
	DD	09340aH
	DD	07006320aH
xdata	ENDS
;	COMDAT xdata
xdata	SEGMENT
$unwind$??$map@V<lambda_87ccf09596cd73ff58e95777441719b2>@@PEBNNU?$List@U?$P@$0BA@$00@@U?$List@U?$P@$0BA@$0CAA@@@UEmptyList@@@@@@PEANNU?$List@U?$P@$0BA@$00@@UEmptyList@@@@@hof@@YAXV?$View@PEANNU?$List@U?$P@$0BA@$00@@UEmptyList@@@@@@V<lambda_87ccf09596cd73ff58e95777441719b2>@@V?$View@PEBNNU?$List@U?$P@$0BA@$00@@U?$List@U?$P@$0BA@$0CAA@@@UEmptyList@@@@@@@@@Z DD 091801H
	DD	0167418H
	DD	0156418H
	DD	0143418H
	DD	0120118H
	DD	0e011H
xdata	ENDS
;	COMDAT xdata
xdata	SEGMENT
$unwind$??$?RV?$View@PEANNUEmptyList@@@@V?$View@PEBNNU?$List@U?$P@$0BA@$0CAA@@@UEmptyList@@@@@@@<lambda_87ccf09596cd73ff58e95777441719b2>@@QEBAXV?$View@PEANNUEmptyList@@@@V?$View@PEBNNU?$List@U?$P@$0BA@$0CAA@@@UEmptyList@@@@@@@Z DD 010401H
	DD	0e204H
xdata	ENDS
;	COMDAT xdata
xdata	SEGMENT
$unwind$??$map@V<lambda_1273283c9775fef46ee1404488bda320>@@PEBNNU?$List@U?$P@$0BA@$00@@U?$List@U?$P@$0BA@$0CAA@@@UEmptyList@@@@@@PEANNU?$List@U?$P@$0BA@$00@@UEmptyList@@@@@hof@@YAXV?$View@PEANNU?$List@U?$P@$0BA@$00@@UEmptyList@@@@@@V<lambda_1273283c9775fef46ee1404488bda320>@@V?$View@PEBNNU?$List@U?$P@$0BA@$00@@U?$List@U?$P@$0BA@$0CAA@@@UEmptyList@@@@@@@@@Z DD 091801H
	DD	0167418H
	DD	0156418H
	DD	0143418H
	DD	0120118H
	DD	0e011H
xdata	ENDS
;	COMDAT xdata
xdata	SEGMENT
$unwind$??$?RV?$View@PEANNUEmptyList@@@@V?$View@PEBNNU?$List@U?$P@$0BA@$0CAA@@@UEmptyList@@@@@@@<lambda_1273283c9775fef46ee1404488bda320>@@QEBAXV?$View@PEANNUEmptyList@@@@V?$View@PEBNNU?$List@U?$P@$0BA@$0CAA@@@UEmptyList@@@@@@@Z DD 010401H
	DD	0e204H
xdata	ENDS
;	COMDAT xdata
xdata	SEGMENT
$unwind$??$zip@V?$View@PEANNU?$List@U?$P@$0BA@$00@@UEmptyList@@@@@@V<lambda_3f837a234d39e606b056c86a3fa6e7a3>@@PEANNU?$List@U?$P@$0BA@$00@@UEmptyList@@@@V1@@hof@@YAXV?$View@PEANNU?$List@U?$P@$0BA@$00@@UEmptyList@@@@@@V<lambda_3f837a234d39e606b056c86a3fa6e7a3>@@00@Z DD 081401H
	DD	04e414H
	DD	03740fH
	DD	02640aH
	DD	013405H
xdata	ENDS
;	COMDAT xdata
xdata	SEGMENT
$unwind$?dtor$0@?0???$construct@U?$pair@V?$vector@NV?$allocator@N@std@@@std@@N@std@@AEBU12@@?$_Default_allocator_traits@V?$allocator@U?$pair@V?$vector@NV?$allocator@N@std@@@std@@N@std@@@std@@@std@@SAXAEAV?$allocator@U?$pair@V?$vector@NV?$allocator@N@std@@@std@@N@std@@@1@QEAU?$pair@V?$vector@NV?$allocator@N@std@@@std@@N@1@AEBU31@@Z@4HA DD 020601H
	DD	050023206H
xdata	ENDS
;	COMDAT xdata
xdata	SEGMENT
$ip2state$??$construct@U?$pair@V?$vector@NV?$allocator@N@std@@@std@@N@std@@AEBU12@@?$_Default_allocator_traits@V?$allocator@U?$pair@V?$vector@NV?$allocator@N@std@@@std@@N@std@@@std@@@std@@SAXAEAV?$allocator@U?$pair@V?$vector@NV?$allocator@N@std@@@std@@N@std@@@1@QEAU?$pair@V?$vector@NV?$allocator@N@std@@@std@@N@1@AEBU31@@Z DD imagerel ??$construct@U?$pair@V?$vector@NV?$allocator@N@std@@@std@@N@std@@AEBU12@@?$_Default_allocator_traits@V?$allocator@U?$pair@V?$vector@NV?$allocator@N@std@@@std@@N@std@@@std@@@std@@SAXAEAV?$allocator@U?$pair@V?$vector@NV?$allocator@N@std@@@std@@N@std@@@1@QEAU?$pair@V?$vector@NV?$allocator@N@std@@@std@@N@1@AEBU31@@Z
	DD	0ffffffffH
	DD	imagerel ??$construct@U?$pair@V?$vector@NV?$allocator@N@std@@@std@@N@std@@AEBU12@@?$_Default_allocator_traits@V?$allocator@U?$pair@V?$vector@NV?$allocator@N@std@@@std@@N@std@@@std@@@std@@SAXAEAV?$allocator@U?$pair@V?$vector@NV?$allocator@N@std@@@std@@N@std@@@1@QEAU?$pair@V?$vector@NV?$allocator@N@std@@@std@@N@1@AEBU31@@Z+40
	DD	00H
	DD	imagerel ??$construct@U?$pair@V?$vector@NV?$allocator@N@std@@@std@@N@std@@AEBU12@@?$_Default_allocator_traits@V?$allocator@U?$pair@V?$vector@NV?$allocator@N@std@@@std@@N@std@@@std@@@std@@SAXAEAV?$allocator@U?$pair@V?$vector@NV?$allocator@N@std@@@std@@N@std@@@1@QEAU?$pair@V?$vector@NV?$allocator@N@std@@@std@@N@1@AEBU31@@Z+59
	DD	0ffffffffH
xdata	ENDS
;	COMDAT xdata
xdata	SEGMENT
$stateUnwindMap$??$construct@U?$pair@V?$vector@NV?$allocator@N@std@@@std@@N@std@@AEBU12@@?$_Default_allocator_traits@V?$allocator@U?$pair@V?$vector@NV?$allocator@N@std@@@std@@N@std@@@std@@@std@@SAXAEAV?$allocator@U?$pair@V?$vector@NV?$allocator@N@std@@@std@@N@std@@@1@QEAU?$pair@V?$vector@NV?$allocator@N@std@@@std@@N@1@AEBU31@@Z DD 0ffffffffH
	DD	imagerel ?dtor$0@?0???$construct@U?$pair@V?$vector@NV?$allocator@N@std@@@std@@N@std@@AEBU12@@?$_Default_allocator_traits@V?$allocator@U?$pair@V?$vector@NV?$allocator@N@std@@@std@@N@std@@@std@@@std@@SAXAEAV?$allocator@U?$pair@V?$vector@NV?$allocator@N@std@@@std@@N@std@@@1@QEAU?$pair@V?$vector@NV?$allocator@N@std@@@std@@N@1@AEBU31@@Z@4HA
xdata	ENDS
;	COMDAT CONST
CONST	SEGMENT
$cppxdata$??$construct@U?$pair@V?$vector@NV?$allocator@N@std@@@std@@N@std@@AEBU12@@?$_Default_allocator_traits@V?$allocator@U?$pair@V?$vector@NV?$allocator@N@std@@@std@@N@std@@@std@@@std@@SAXAEAV?$allocator@U?$pair@V?$vector@NV?$allocator@N@std@@@std@@N@std@@@1@QEAU?$pair@V?$vector@NV?$allocator@N@std@@@std@@N@1@AEBU31@@Z DD 019930522H
	DD	01H
	DD	imagerel $stateUnwindMap$??$construct@U?$pair@V?$vector@NV?$allocator@N@std@@@std@@N@std@@AEBU12@@?$_Default_allocator_traits@V?$allocator@U?$pair@V?$vector@NV?$allocator@N@std@@@std@@N@std@@@std@@@std@@SAXAEAV?$allocator@U?$pair@V?$vector@NV?$allocator@N@std@@@std@@N@std@@@1@QEAU?$pair@V?$vector@NV?$allocator@N@std@@@std@@N@1@AEBU31@@Z
	DD	00H
	DD	00H
	DD	03H
	DD	imagerel $ip2state$??$construct@U?$pair@V?$vector@NV?$allocator@N@std@@@std@@N@std@@AEBU12@@?$_Default_allocator_traits@V?$allocator@U?$pair@V?$vector@NV?$allocator@N@std@@@std@@N@std@@@std@@@std@@SAXAEAV?$allocator@U?$pair@V?$vector@NV?$allocator@N@std@@@std@@N@std@@@1@QEAU?$pair@V?$vector@NV?$allocator@N@std@@@std@@N@1@AEBU31@@Z
	DD	020H
	DD	00H
	DD	01H
CONST	ENDS
;	COMDAT xdata
xdata	SEGMENT
$unwind$??$construct@U?$pair@V?$vector@NV?$allocator@N@std@@@std@@N@std@@AEBU12@@?$_Default_allocator_traits@V?$allocator@U?$pair@V?$vector@NV?$allocator@N@std@@@std@@N@std@@@std@@@std@@SAXAEAV?$allocator@U?$pair@V?$vector@NV?$allocator@N@std@@@std@@N@std@@@1@QEAU?$pair@V?$vector@NV?$allocator@N@std@@@std@@N@1@AEBU31@@Z DD 041d11H
	DD	0a341dH
	DD	0700b520fH
	DD	imagerel __CxxFrameHandler3
	DD	imagerel $cppxdata$??$construct@U?$pair@V?$vector@NV?$allocator@N@std@@@std@@N@std@@AEBU12@@?$_Default_allocator_traits@V?$allocator@U?$pair@V?$vector@NV?$allocator@N@std@@@std@@N@std@@@std@@@std@@SAXAEAV?$allocator@U?$pair@V?$vector@NV?$allocator@N@std@@@std@@N@std@@@1@QEAU?$pair@V?$vector@NV?$allocator@N@std@@@std@@N@1@AEBU31@@Z
xdata	ENDS
;	COMDAT xdata
xdata	SEGMENT
$unwind$??$_Uninitialized_copy_al_unchecked@NNV?$allocator@N@std@@@std@@YAPEANPEAN00AEAV?$allocator@N@0@U_Really_trivial_ptr_iterator_tag@0@U?$integral_constant@_N$00@0@@Z DD 040a01H
	DD	06340aH
	DD	07006320aH
xdata	ENDS
;	COMDAT xdata
xdata	SEGMENT
$unwind$??0?$pair@V?$vector@NV?$allocator@N@std@@@std@@N@std@@QEAA@AEBU01@@Z DD 040a01H
	DD	06340aH
	DD	07006320aH
xdata	ENDS
;	COMDAT xdata
xdata	SEGMENT
$unwind$??$rnz@V?$View@PEANNUEmptyList@@@@V1@V<lambda_3f837a234d39e606b056c86a3fa6e7a3>@@V<lambda_961065762246b99eadeb829041f0d74c>@@PEBNNU?$List@U?$P@$0BA@$00@@UEmptyList@@@@V?$View@PEBNNU?$List@U?$P@$0BA@$0CAA@@@UEmptyList@@@@@@@hof@@YAXV?$View@PEANNUEmptyList@@@@0V<lambda_3f837a234d39e606b056c86a3fa6e7a3>@@V<lambda_961065762246b99eadeb829041f0d74c>@@V?$View@PEBNNU?$List@U?$P@$0BA@$00@@UEmptyList@@@@@@V?$View@PEBNNU?$List@U?$P@$0BA@$0CAA@@@UEmptyList@@@@@@@Z DD 060d01H
	DD	06640dH
	DD	05340dH
	DD	0700be00dH
xdata	ENDS
;	COMDAT xdata
xdata	SEGMENT
$unwind$??$_Copy_memmove@PEANPEAN@std@@YAPEANPEAN00@Z DD 040a01H
	DD	06340aH
	DD	07006320aH
xdata	ENDS
; Function compile flags: /Ogtpy
; File c:\program files (x86)\microsoft visual studio\2017\enterprise\vc\tools\msvc\14.11.25503\include\vcruntime_new.h
;	COMDAT ??2@YAPEAX_KPEAX@Z
_TEXT	SEGMENT
_Size$dead$ = 8
_Where$ = 16
??2@YAPEAX_KPEAX@Z PROC					; operator new, COMDAT

; 92   :         (void)_Size;
; 93   :         return _Where;

	mov	rax, rdx

; 94   :     }

	ret	0
??2@YAPEAX_KPEAX@Z ENDP					; operator new
_TEXT	ENDS
; Function compile flags: /Ogtpy
; File c:\program files (x86)\microsoft visual studio\2017\enterprise\vc\tools\msvc\14.11.25503\include\vcruntime_new.h
;	COMDAT ??3@YAXPEAX0@Z
_TEXT	SEGMENT
__formal$dead$ = 8
__formal$dead$ = 16
??3@YAXPEAX0@Z PROC					; operator delete, COMDAT

; 98   :         return;
; 99   :     }

	ret	0
??3@YAXPEAX0@Z ENDP					; operator delete
_TEXT	ENDS
; Function compile flags: /Ogtpy
; File c:\program files (x86)\microsoft visual studio\2017\enterprise\vc\tools\msvc\14.11.25503\include\iosfwd
;	COMDAT ?length@?$char_traits@D@std@@SA_KQEBD@Z
_TEXT	SEGMENT
_First$ = 8
?length@?$char_traits@D@std@@SA_KQEBD@Z PROC		; std::char_traits<char>::length, COMDAT

; 480  : 		return (_CSTD strlen(_First));

	or	rax, -1
$LL3@length:
	inc	rax
	cmp	BYTE PTR [rcx+rax], 0
	jne	SHORT $LL3@length

; 481  : 		}

	ret	0
?length@?$char_traits@D@std@@SA_KQEBD@Z ENDP		; std::char_traits<char>::length
_TEXT	ENDS
; Function compile flags: /Ogtpy
; File c:\program files (x86)\microsoft visual studio\2017\enterprise\vc\tools\msvc\14.11.25503\include\iosfwd
;	COMDAT ?copy@?$char_traits@D@std@@SAPEADQEADQEBD_K@Z
_TEXT	SEGMENT
_First1$ = 48
_First2$dead$ = 56
_Count$ = 64
?copy@?$char_traits@D@std@@SAPEADQEADQEBD_K@Z PROC	; std::char_traits<char>::copy, COMDAT

; 485  : 		{	// copy [_First2, _First2 + _Count) to [_First1, ...)

$LN4:
	push	rbx
	sub	rsp, 32					; 00000020H

; 486  : 		return ((_Elem *)_CSTD memcpy(_First1, _First2, _Count));

	lea	rdx, OFFSET FLAT:??_C@_0P@PBMJDCHB@CPU?5Blocked?516?$AA@
	mov	rbx, rcx
	call	memcpy
	mov	rax, rbx

; 487  : 		}

	add	rsp, 32					; 00000020H
	pop	rbx
	ret	0
?copy@?$char_traits@D@std@@SAPEADQEADQEBD_K@Z ENDP	; std::char_traits<char>::copy
_TEXT	ENDS
; Function compile flags: /Ogtpy
; File c:\program files (x86)\microsoft visual studio\2017\enterprise\vc\tools\msvc\14.11.25503\include\iosfwd
;	COMDAT ?move@?$char_traits@D@std@@SAPEADQEADQEBD_K@Z
_TEXT	SEGMENT
_First1$ = 8
_First2$dead$ = 16
_Count$ = 24
?move@?$char_traits@D@std@@SAPEADQEADQEBD_K@Z PROC	; std::char_traits<char>::move, COMDAT

; 506  : 		return ((_Elem *)_CSTD memmove(_First1, _First2, _Count));

	lea	rdx, OFFSET FLAT:??_C@_0P@PBMJDCHB@CPU?5Blocked?516?$AA@
	rex_jmp	QWORD PTR __imp_memmove
?move@?$char_traits@D@std@@SAPEADQEADQEBD_K@Z ENDP	; std::char_traits<char>::move
_TEXT	ENDS
; Function compile flags: /Ogtpy
; File c:\program files (x86)\microsoft visual studio\2017\enterprise\vc\tools\msvc\14.11.25503\include\iosfwd
;	COMDAT ?assign@?$char_traits@D@std@@SAXAEADAEBD@Z
_TEXT	SEGMENT
_Left$ = 8
_Right$ = 16
?assign@?$char_traits@D@std@@SAXAEADAEBD@Z PROC		; std::char_traits<char>::assign, COMDAT

; 517  : 		_Left = _Right;

	movzx	eax, BYTE PTR [rdx]
	mov	BYTE PTR [rcx], al

; 518  : 		}

	ret	0
?assign@?$char_traits@D@std@@SAXAEADAEBD@Z ENDP		; std::char_traits<char>::assign
_TEXT	ENDS
; Function compile flags: /Ogtpy
; File c:\program files (x86)\microsoft visual studio\2017\enterprise\vc\tools\msvc\14.11.25503\include\iosfwd
;	COMDAT ?eq_int_type@?$char_traits@D@std@@SA_NAEBH0@Z
_TEXT	SEGMENT
_Left$ = 8
_Right$ = 16
?eq_int_type@?$char_traits@D@std@@SA_NAEBH0@Z PROC	; std::char_traits<char>::eq_int_type, COMDAT

; 542  : 		return (_Left == _Right);

	mov	eax, DWORD PTR [rdx]
	cmp	DWORD PTR [rcx], eax
	sete	al

; 543  : 		}

	ret	0
?eq_int_type@?$char_traits@D@std@@SA_NAEBH0@Z ENDP	; std::char_traits<char>::eq_int_type
_TEXT	ENDS
; Function compile flags: /Ogtpy
; File c:\program files (x86)\microsoft visual studio\2017\enterprise\vc\tools\msvc\14.11.25503\include\iosfwd
;	COMDAT ?eof@?$char_traits@D@std@@SAHXZ
_TEXT	SEGMENT
?eof@?$char_traits@D@std@@SAHXZ PROC			; std::char_traits<char>::eof, COMDAT

; 552  : 		return (EOF);

	or	eax, -1

; 553  : 		}

	ret	0
?eof@?$char_traits@D@std@@SAHXZ ENDP			; std::char_traits<char>::eof
_TEXT	ENDS
; Function compile flags: /Ogtpy
; File c:\program files (x86)\microsoft visual studio\2017\enterprise\vc\tools\msvc\14.11.25503\include\xutility
;	COMDAT ?_Orphan_all@_Container_base0@std@@QEAAXXZ
_TEXT	SEGMENT
this$dead$ = 8
?_Orphan_all@_Container_base0@std@@QEAAXXZ PROC		; std::_Container_base0::_Orphan_all, COMDAT

; 65   : 		}

	ret	0
?_Orphan_all@_Container_base0@std@@QEAAXXZ ENDP		; std::_Container_base0::_Orphan_all
_TEXT	ENDS
; Function compile flags: /Ogtpy
; File c:\program files (x86)\microsoft visual studio\2017\enterprise\vc\tools\msvc\14.11.25503\include\limits
;	COMDAT ?max@?$numeric_limits@_J@std@@SA_JXZ
_TEXT	SEGMENT
?max@?$numeric_limits@_J@std@@SA_JXZ PROC		; std::numeric_limits<__int64>::max, COMDAT

; 973  : 		return (LLONG_MAX);

	mov	rax, 9223372036854775807		; 7fffffffffffffffH

; 974  : 		}

	ret	0
?max@?$numeric_limits@_J@std@@SA_JXZ ENDP		; std::numeric_limits<__int64>::max
_TEXT	ENDS
; Function compile flags: /Ogtpy
; File c:\program files (x86)\microsoft visual studio\2017\enterprise\vc\tools\msvc\14.11.25503\include\xmemory0
;	COMDAT ?_Allocate@std@@YAPEAX_K0_N@Z
_TEXT	SEGMENT
_Count$ = 48
_Sz$ = 56
_Try_aligned_allocation$dead$ = 64
?_Allocate@std@@YAPEAX_K0_N@Z PROC			; std::_Allocate, COMDAT

; 49   : 	{	// allocate storage for _Count elements of size _Sz

$LN11:
	sub	rsp, 40					; 00000028H
	mov	r8, rdx

; 50   : 	void *_Ptr = 0;
; 51   : 
; 52   : 	if (_Count == 0)

	test	rcx, rcx
	jne	SHORT $LN2@Allocate

; 53   : 		{
; 54   : 		return (_Ptr);

	xor	eax, eax

; 94   : 	_SCL_SECURE_ALWAYS_VALIDATE(_Ptr != 0);
; 95   : 	return (_Ptr);
; 96   : 	}

	add	rsp, 40					; 00000028H
	ret	0
$LN2@Allocate:

; 55   : 		}
; 56   : 
; 57   : 	// check overflow of multiply
; 58   : 	if (static_cast<size_t>(-1) / _Sz < _Count)

	xor	edx, edx
	or	rax, -1
	div	r8
	cmp	rax, rcx
	jae	SHORT $LN3@Allocate

; 59   : 		{
; 60   : 		_Xbad_alloc();	// report no memory

	call	QWORD PTR __imp_?_Xbad_alloc@std@@YAXXZ
	int	3
$LN3@Allocate:

; 61   : 		}
; 62   : 
; 63   : 	const size_t _User_size = _Count * _Sz;

	imul	rcx, r8

; 64   : 
; 65   : #if defined(_M_IX86) || defined(_M_X64)
; 66   : 	if (_Try_aligned_allocation
; 67   : 		&& _BIG_ALLOCATION_THRESHOLD <= _User_size)

	cmp	rcx, 4096				; 00001000H
	jb	SHORT $LN4@Allocate

; 68   : 		{	// allocate large block
; 69   : 		static_assert(sizeof(void *) < _BIG_ALLOCATION_ALIGNMENT,
; 70   : 			"Big allocations should at least match vector register size");
; 71   : 		const size_t _Block_size = _NON_USER_SIZE + _User_size;

	lea	rax, QWORD PTR [rcx+39]

; 72   : 		if (_Block_size <= _User_size)

	cmp	rax, rcx
	ja	SHORT $LN5@Allocate

; 73   : 			{
; 74   : 			_Xbad_alloc();	// report no memory

	call	QWORD PTR __imp_?_Xbad_alloc@std@@YAXXZ
	int	3
$LN5@Allocate:

; 75   : 			}
; 76   : 
; 77   : 		const uintptr_t _Ptr_container =
; 78   : 			reinterpret_cast<uintptr_t>(::operator new(_Block_size));

	mov	rcx, rax
	call	??2@YAPEAX_K@Z				; operator new

; 79   : 		_SCL_SECURE_ALWAYS_VALIDATE(_Ptr_container != 0);
; 80   : 		_Ptr = reinterpret_cast<void *>((_Ptr_container + _NON_USER_SIZE)

	lea	rcx, QWORD PTR [rax+39]
	and	rcx, -32				; ffffffffffffffe0H

; 81   : 			& ~(_BIG_ALLOCATION_ALIGNMENT - 1));
; 82   : 		static_cast<uintptr_t *>(_Ptr)[-1] = _Ptr_container;

	mov	QWORD PTR [rcx-8], rax

; 83   : 
; 84   :  #ifdef _DEBUG
; 85   : 		static_cast<uintptr_t *>(_Ptr)[-2] = _BIG_ALLOCATION_SENTINEL;
; 86   :  #endif /* _DEBUG */
; 87   :  		return (_Ptr);

	mov	rax, rcx

; 94   : 	_SCL_SECURE_ALWAYS_VALIDATE(_Ptr != 0);
; 95   : 	return (_Ptr);
; 96   : 	}

	add	rsp, 40					; 00000028H
	ret	0
$LN4@Allocate:
	add	rsp, 40					; 00000028H

; 88   : 		}
; 89   : #else /* ^^^ x86/x64 hardware ^^^ // vvv ARM hardware vvv */
; 90   : 	(void)_Try_aligned_allocation;
; 91   : #endif /* defined(_M_IX86) || defined(_M_X64) */
; 92   : 
; 93   : 	_Ptr = ::operator new(_User_size);

	jmp	??2@YAPEAX_K@Z				; operator new
$LN10@Allocate:
?_Allocate@std@@YAPEAX_K0_N@Z ENDP			; std::_Allocate
_TEXT	ENDS
; Function compile flags: /Ogtpy
; File c:\program files (x86)\microsoft visual studio\2017\enterprise\vc\tools\msvc\14.11.25503\include\xmemory0
;	COMDAT ?_Deallocate@std@@YAXPEAX_K1@Z
_TEXT	SEGMENT
_Ptr$ = 48
_Count$ = 56
_Sz$ = 64
?_Deallocate@std@@YAXPEAX_K1@Z PROC			; std::_Deallocate, COMDAT

; 101  : 	{	// deallocate storage for _Count elements of size _Sz

$LN17:
	sub	rsp, 40					; 00000028H
	mov	r9, rdx

; 102  : 	if (_Count > static_cast<size_t>(-1) / _Sz)

	or	rax, -1
	xor	edx, edx
	div	r8
	cmp	r9, rax
	ja	SHORT $_Invalid_parameter$18

; 103  : 		{
; 104  : 		goto _Invalid_parameter; // TRANSITION, VSO#359498
; 105  : 		}
; 106  : 
; 107  : 	if (_BIG_ALLOCATION_THRESHOLD <= _Count * _Sz)

	imul	r9, r8
	cmp	r9, 4096				; 00001000H
	jb	SHORT $LN4@Deallocate

; 108  : 		{	// deallocate large block
; 109  : 		const uintptr_t _Ptr_user = reinterpret_cast<uintptr_t>(_Ptr);
; 110  : 		if ((_Ptr_user & (_BIG_ALLOCATION_ALIGNMENT - 1)) != 0)

	test	cl, 31
	jne	SHORT $_Invalid_parameter$18

; 111  : 			{
; 112  : 			goto _Invalid_parameter;
; 113  : 			}
; 114  : 
; 115  : 		const uintptr_t _Ptr_ptr = _Ptr_user - sizeof(void *);
; 116  : 		const uintptr_t _Ptr_container =
; 117  : 			*reinterpret_cast<uintptr_t *>(_Ptr_ptr);

	mov	rax, QWORD PTR [rcx-8]

; 118  : 
; 119  :  #ifdef _DEBUG
; 120  : 		// If the following asserts, it likely means that we are performing
; 121  : 		// an aligned delete on memory coming from an unaligned allocation.
; 122  : 		if (reinterpret_cast<uintptr_t *>(_Ptr_ptr)[-1] != _BIG_ALLOCATION_SENTINEL)
; 123  : 			{
; 124  : 			goto _Invalid_parameter;
; 125  : 			}
; 126  :  #endif /* _DEBUG */
; 127  : 
; 128  : 		// Extra paranoia on aligned allocation/deallocation
; 129  : 		if (_Ptr_container >= _Ptr_user)

	cmp	rax, rcx
	jae	SHORT $_Invalid_parameter$18
	sub	rcx, rax
	sub	rcx, 8
	cmp	rcx, 31
	ja	SHORT $_Invalid_parameter$18

; 130  : 			{
; 131  : 			goto _Invalid_parameter;
; 132  : 			}
; 133  : 
; 134  :  #ifdef _DEBUG
; 135  : 		if (2 * sizeof(void *) > _Ptr_user - _Ptr_container)
; 136  :  #else /* _DEBUG */
; 137  : 		if (sizeof(void *) > _Ptr_user - _Ptr_container)
; 138  :  #endif /* _DEBUG */
; 139  : 			{
; 140  : 			goto _Invalid_parameter;
; 141  : 			}
; 142  : 
; 143  : 		if (_Ptr_user - _Ptr_container > _NON_USER_SIZE)
; 144  : 			{
; 145  : 			goto _Invalid_parameter;
; 146  : 			}
; 147  : 
; 148  : 		_Ptr = reinterpret_cast<void *>(_Ptr_container);

	mov	rcx, rax
$LN4@Deallocate:

; 156  : 	}

	add	rsp, 40					; 00000028H

; 149  : 		}
; 150  : 
; 151  : 	::operator delete(_Ptr);

	jmp	??3@YAXPEAX@Z				; operator delete
$_Invalid_parameter$18:

; 152  : 	return;
; 153  : 
; 154  : _Invalid_parameter:
; 155  : 	_SCL_SECURE_INVALID_ARGUMENT_NO_ASSERT;

	call	QWORD PTR __imp__invalid_parameter_noinfo_noreturn
	int	3
$LN16@Deallocate:
?_Deallocate@std@@YAXPEAX_K1@Z ENDP			; std::_Deallocate
_TEXT	ENDS
; Function compile flags: /Ogtpy
; File c:\program files (x86)\microsoft visual studio\2017\enterprise\vc\tools\msvc\14.11.25503\include\xmemory0
;	COMDAT ??$_Convert_size@_K@std@@YA_K_K@Z
_TEXT	SEGMENT
_Len$ = 8
??$_Convert_size@_K@std@@YA_K_K@Z PROC			; std::_Convert_size<unsigned __int64>, COMDAT

; 1162 : 	return (_Len);

	mov	rax, rcx

; 1163 : 	}

	ret	0
??$_Convert_size@_K@std@@YA_K_K@Z ENDP			; std::_Convert_size<unsigned __int64>
_TEXT	ENDS
; Function compile flags: /Ogtpy
; File c:\program files (x86)\microsoft visual studio\2017\enterprise\vc\tools\msvc\14.11.25503\include\chrono
;	COMDAT ?now@steady_clock@chrono@std@@SA?AV?$time_point@Usteady_clock@chrono@std@@V?$duration@_JU?$ratio@$00$0DLJKMKAA@@std@@@23@@23@XZ
_TEXT	SEGMENT
__$ReturnUdt$ = 48
?now@steady_clock@chrono@std@@SA?AV?$time_point@Usteady_clock@chrono@std@@V?$duration@_JU?$ratio@$00$0DLJKMKAA@@std@@@23@@23@XZ PROC ; std::chrono::steady_clock::now, COMDAT

; 824  : 		{	// get current time

$LN8:
	mov	QWORD PTR [rsp+8], rbx
	push	rdi
	sub	rsp, 32					; 00000020H
	mov	rdi, rcx

; 825  : 		const long long _Freq = _Query_perf_frequency();	// doesn't change after system boot

	call	QWORD PTR __imp__Query_perf_frequency
	mov	rbx, rax

; 826  : 		const long long _Ctr = _Query_perf_counter();

	call	QWORD PTR __imp__Query_perf_counter

; 827  : 		static_assert(period::num == 1, "This assumes period::num == 1.");
; 828  : 		const long long _Whole = (_Ctr / _Freq) * period::den;
; 829  : 		const long long _Part = (_Ctr % _Freq) * period::den / _Freq;

	cdq
	idiv	rbx
	mov	r8, rax
	imul	rax, rdx, 1000000000			; 3b9aca00H
	imul	rcx, r8, 1000000000			; 3b9aca00H
	cdq
	idiv	rbx

; 831  : 		}

	mov	rbx, QWORD PTR [rsp+48]
	add	rax, rcx

; 235  : 		: _MyDur(_Other)

	mov	QWORD PTR [rdi], rax

; 830  : 		return (time_point(duration(_Whole + _Part)));

	mov	rax, rdi

; 831  : 		}

	add	rsp, 32					; 00000020H
	pop	rdi
	ret	0
?now@steady_clock@chrono@std@@SA?AV?$time_point@Usteady_clock@chrono@std@@V?$duration@_JU?$ratio@$00$0DLJKMKAA@@std@@@23@@23@XZ ENDP ; std::chrono::steady_clock::now
_TEXT	ENDS
; Function compile flags: /Ogtpy
; File d:\documents\dev\lambdagen\view\view\cpu_benchmark.cpp
; File c:\program files (x86)\microsoft visual studio\2017\enterprise\vc\tools\msvc\14.11.25503\include\chrono
; File d:\documents\dev\lambdagen\view\view\cpu_benchmark.cpp
; File c:\program files (x86)\microsoft visual studio\2017\enterprise\vc\tools\msvc\14.11.25503\include\algorithm
; File c:\program files (x86)\microsoft visual studio\2017\enterprise\vc\tools\msvc\14.11.25503\include\chrono
; File c:\program files (x86)\microsoft visual studio\2017\enterprise\vc\tools\msvc\14.11.25503\include\algorithm
; File c:\program files (x86)\microsoft visual studio\2017\enterprise\vc\tools\msvc\14.11.25503\include\chrono
; File c:\program files (x86)\microsoft visual studio\2017\enterprise\vc\tools\msvc\14.11.25503\include\algorithm
; File c:\program files (x86)\microsoft visual studio\2017\enterprise\vc\tools\msvc\14.11.25503\include\chrono
; File d:\documents\dev\lambdagen\view\view\cpu_benchmark.cpp
;	COMDAT ?ms@@YANAEBV?$time_point@Usteady_clock@chrono@std@@V?$duration@_JU?$ratio@$00$0DLJKMKAA@@std@@@23@@chrono@std@@0@Z
_TEXT	SEGMENT
t0$ = 8
t1$ = 16
?ms@@YANAEBV?$time_point@Usteady_clock@chrono@std@@V?$duration@_JU?$ratio@$00$0DLJKMKAA@@std@@@23@@chrono@std@@0@Z PROC ; ms, COMDAT
; File c:\program files (x86)\microsoft visual studio\2017\enterprise\vc\tools\msvc\14.11.25503\include\chrono

; 482  : 	return (_CT(_Left).count() < _CT(_Right).count());

	mov	r8, QWORD PTR [rdx]
; File d:\documents\dev\lambdagen\view\view\cpu_benchmark.cpp

; 15   : auto ms(Time const& t0, Time const& t1) { return std::chrono::duration_cast<std::chrono::microseconds>(std::max(t1, t0) - std::min(t1, t0)).count() / 1000.0; }

	mov	r9, rcx
; File c:\program files (x86)\microsoft visual studio\2017\enterprise\vc\tools\msvc\14.11.25503\include\algorithm

; 3719 : 	return (_DEBUG_LT(_Left, _Right) ? _Right : _Left);

	mov	rcx, rdx
	xorps	xmm0, xmm0
; File c:\program files (x86)\microsoft visual studio\2017\enterprise\vc\tools\msvc\14.11.25503\include\chrono

; 532  : 	return (_CF::num == 1 && _CF::den == 1

	mov	rax, 2361183241434822607		; 20c49ba5e353f7cfH

; 482  : 	return (_CT(_Left).count() < _CT(_Right).count());

	cmp	r8, QWORD PTR [r9]
; File c:\program files (x86)\microsoft visual studio\2017\enterprise\vc\tools\msvc\14.11.25503\include\algorithm

; 3719 : 	return (_DEBUG_LT(_Left, _Right) ? _Right : _Left);

	cmovl	rcx, r9
; File c:\program files (x86)\microsoft visual studio\2017\enterprise\vc\tools\msvc\14.11.25503\include\chrono

; 482  : 	return (_CT(_Left).count() < _CT(_Right).count());

	cmp	QWORD PTR [r9], r8
; File c:\program files (x86)\microsoft visual studio\2017\enterprise\vc\tools\msvc\14.11.25503\include\algorithm

; 3755 : 	return (_DEBUG_LT(_Right, _Left) ? _Right : _Left);

	cmovl	rdx, r9
; File c:\program files (x86)\microsoft visual studio\2017\enterprise\vc\tools\msvc\14.11.25503\include\chrono

; 335  : 	return (_CD(_CD(_Left).count() - _CD(_Right).count()));

	mov	rcx, QWORD PTR [rcx]
	sub	rcx, QWORD PTR [rdx]

; 532  : 	return (_CF::num == 1 && _CF::den == 1

	imul	rcx
	sar	rdx, 7
	mov	rax, rdx
	shr	rax, 63					; 0000003fH
	add	rdx, rax
; File d:\documents\dev\lambdagen\view\view\cpu_benchmark.cpp

; 15   : auto ms(Time const& t0, Time const& t1) { return std::chrono::duration_cast<std::chrono::microseconds>(std::max(t1, t0) - std::min(t1, t0)).count() / 1000.0; }

	cvtsi2sd xmm0, rdx
	divsd	xmm0, QWORD PTR __real@408f400000000000
	ret	0
?ms@@YANAEBV?$time_point@Usteady_clock@chrono@std@@V?$duration@_JU?$ratio@$00$0DLJKMKAA@@std@@@23@@chrono@std@@0@Z ENDP ; ms
_TEXT	ENDS
; Function compile flags: /Ogtpy
; File d:\documents\dev\lambdagen\view\view\cpu_benchmark.cpp
;	COMDAT main
_TEXT	SEGMENT
main	PROC						; COMDAT

; 248  : {

$LN4:
	sub	rsp, 40					; 00000028H

; 249  :     std::cout << "               naive       func naive   blocked   view blocked   func view blocked\n";

	mov	rcx, QWORD PTR __imp_?cout@std@@3V?$basic_ostream@DU?$char_traits@D@std@@@1@A
	lea	rdx, OFFSET FLAT:??_C@_0FE@JPLNENK@?5?5?5?5?5?5?5?5?5?5?5?5?5?5?5naive?5?5?5?5?5?5?5func?5@
	call	??$?6U?$char_traits@D@std@@@std@@YAAEAV?$basic_ostream@DU?$char_traits@D@std@@@0@AEAV10@PEBD@Z ; std::operator<<<std::char_traits<char> >

; 250  :     //invoke<64>();
; 251  :     //invoke<128>();
; 252  :     //invoke<256>();
; 253  :     invoke<512>();

	call	??$invoke@$0CAA@@@YAXXZ			; invoke<512>

; 254  :     //invoke<1024>();
; 255  : }

	xor	eax, eax
	add	rsp, 40					; 00000028H
	ret	0
main	ENDP
_TEXT	ENDS
; Function compile flags: /Ogtpy
; File c:\program files (x86)\microsoft visual studio\2017\enterprise\vc\tools\msvc\14.11.25503\include\chrono
;	COMDAT ??0?$time_point@Usteady_clock@chrono@std@@V?$duration@_JU?$ratio@$00$0DLJKMKAA@@std@@@23@@chrono@std@@QEAA@AEBV?$duration@_JU?$ratio@$00$0DLJKMKAA@@std@@@12@@Z
_TEXT	SEGMENT
this$ = 8
_Other$ = 16
??0?$time_point@Usteady_clock@chrono@std@@V?$duration@_JU?$ratio@$00$0DLJKMKAA@@std@@@23@@chrono@std@@QEAA@AEBV?$duration@_JU?$ratio@$00$0DLJKMKAA@@std@@@12@@Z PROC ; std::chrono::time_point<std::chrono::steady_clock,std::chrono::duration<__int64,std::ratio<1,1000000000> > >::time_point<std::chrono::steady_clock,std::chrono::duration<__int64,std::ratio<1,1000000000> > >, COMDAT

; 235  : 		: _MyDur(_Other)

	mov	rax, QWORD PTR [rdx]
	mov	QWORD PTR [rcx], rax

; 237  : 		}

	mov	rax, rcx
	ret	0
??0?$time_point@Usteady_clock@chrono@std@@V?$duration@_JU?$ratio@$00$0DLJKMKAA@@std@@@23@@chrono@std@@QEAA@AEBV?$duration@_JU?$ratio@$00$0DLJKMKAA@@std@@@12@@Z ENDP ; std::chrono::time_point<std::chrono::steady_clock,std::chrono::duration<__int64,std::ratio<1,1000000000> > >::time_point<std::chrono::steady_clock,std::chrono::duration<__int64,std::ratio<1,1000000000> > >
_TEXT	ENDS
; Function compile flags: /Ogtpy
; File c:\program files (x86)\microsoft visual studio\2017\enterprise\vc\tools\msvc\14.11.25503\include\chrono
;	COMDAT ?count@?$duration@_JU?$ratio@$00$0PECEA@@std@@@chrono@std@@QEBA_JXZ
_TEXT	SEGMENT
this$ = 8
?count@?$duration@_JU?$ratio@$00$0PECEA@@std@@@chrono@std@@QEBA_JXZ PROC ; std::chrono::duration<__int64,std::ratio<1,1000000> >::count, COMDAT

; 126  : 		return (_MyRep);

	mov	rax, QWORD PTR [rcx]

; 127  : 		}

	ret	0
?count@?$duration@_JU?$ratio@$00$0PECEA@@std@@@chrono@std@@QEBA_JXZ ENDP ; std::chrono::duration<__int64,std::ratio<1,1000000> >::count
_TEXT	ENDS
; Function compile flags: /Ogtpy
; File c:\program files (x86)\microsoft visual studio\2017\enterprise\vc\tools\msvc\14.11.25503\include\xstring
; File c:\program files (x86)\microsoft visual studio\2017\enterprise\vc\tools\msvc\14.11.25503\include\xmemory0
; File c:\program files (x86)\microsoft visual studio\2017\enterprise\vc\tools\msvc\14.11.25503\include\xstring
; File c:\program files (x86)\microsoft visual studio\2017\enterprise\vc\tools\msvc\14.11.25503\include\xmemory0
; File c:\program files (x86)\microsoft visual studio\2017\enterprise\vc\tools\msvc\14.11.25503\include\xstring
; File c:\program files (x86)\microsoft visual studio\2017\enterprise\vc\tools\msvc\14.11.25503\include\iosfwd
; File c:\program files (x86)\microsoft visual studio\2017\enterprise\vc\tools\msvc\14.11.25503\include\xstring
; File c:\program files (x86)\microsoft visual studio\2017\enterprise\vc\tools\msvc\14.11.25503\include\xmemory0
; File c:\program files (x86)\microsoft visual studio\2017\enterprise\vc\tools\msvc\14.11.25503\include\xstring
;	COMDAT ??1?$basic_string@DU?$char_traits@D@std@@V?$allocator@D@2@@std@@QEAA@XZ
_TEXT	SEGMENT
this$ = 48
??1?$basic_string@DU?$char_traits@D@std@@V?$allocator@D@2@@std@@QEAA@XZ PROC ; std::basic_string<char,std::char_traits<char>,std::allocator<char> >::~basic_string<char,std::char_traits<char>,std::allocator<char> >, COMDAT

; 2245 : 		{	// destroy the string

$LN49:
	push	rbx
	sub	rsp, 32					; 00000020H

; 1617 : 		return (_BUF_SIZE <= _Myres);

	mov	rax, QWORD PTR [rcx+24]

; 2245 : 		{	// destroy the string

	mov	rbx, rcx

; 1617 : 		return (_BUF_SIZE <= _Myres);

	cmp	rax, 16

; 3709 : 		if (_My_data._Large_string_engaged())

	jb	SHORT $LN27@basic_stri
; File c:\program files (x86)\microsoft visual studio\2017\enterprise\vc\tools\msvc\14.11.25503\include\xmemory0

; 941  : 		_Deallocate(_Ptr, _Count, sizeof(_Ty));

	mov	rcx, QWORD PTR [rcx]
; File c:\program files (x86)\microsoft visual studio\2017\enterprise\vc\tools\msvc\14.11.25503\include\xstring

; 3714 : 			_Al.deallocate(_Ptr, _My_data._Myres + 1);

	inc	rax
; File c:\program files (x86)\microsoft visual studio\2017\enterprise\vc\tools\msvc\14.11.25503\include\xmemory0

; 107  : 	if (_BIG_ALLOCATION_THRESHOLD <= _Count * _Sz)

	cmp	rax, 4096				; 00001000H
	jb	SHORT $LN30@basic_stri

; 108  : 		{	// deallocate large block
; 109  : 		const uintptr_t _Ptr_user = reinterpret_cast<uintptr_t>(_Ptr);
; 110  : 		if ((_Ptr_user & (_BIG_ALLOCATION_ALIGNMENT - 1)) != 0)

	test	cl, 31
	jne	SHORT $_Invalid_parameter$50

; 111  : 			{
; 112  : 			goto _Invalid_parameter;
; 113  : 			}
; 114  : 
; 115  : 		const uintptr_t _Ptr_ptr = _Ptr_user - sizeof(void *);
; 116  : 		const uintptr_t _Ptr_container =
; 117  : 			*reinterpret_cast<uintptr_t *>(_Ptr_ptr);

	mov	rax, QWORD PTR [rcx-8]

; 118  : 
; 119  :  #ifdef _DEBUG
; 120  : 		// If the following asserts, it likely means that we are performing
; 121  : 		// an aligned delete on memory coming from an unaligned allocation.
; 122  : 		if (reinterpret_cast<uintptr_t *>(_Ptr_ptr)[-1] != _BIG_ALLOCATION_SENTINEL)
; 123  : 			{
; 124  : 			goto _Invalid_parameter;
; 125  : 			}
; 126  :  #endif /* _DEBUG */
; 127  : 
; 128  : 		// Extra paranoia on aligned allocation/deallocation
; 129  : 		if (_Ptr_container >= _Ptr_user)

	cmp	rax, rcx
	jae	SHORT $_Invalid_parameter$50
	sub	rcx, rax
	sub	rcx, 8
	cmp	rcx, 31
	ja	SHORT $_Invalid_parameter$50

; 130  : 			{
; 131  : 			goto _Invalid_parameter;
; 132  : 			}
; 133  : 
; 134  :  #ifdef _DEBUG
; 135  : 		if (2 * sizeof(void *) > _Ptr_user - _Ptr_container)
; 136  :  #else /* _DEBUG */
; 137  : 		if (sizeof(void *) > _Ptr_user - _Ptr_container)
; 138  :  #endif /* _DEBUG */
; 139  : 			{
; 140  : 			goto _Invalid_parameter;
; 141  : 			}
; 142  : 
; 143  : 		if (_Ptr_user - _Ptr_container > _NON_USER_SIZE)
; 144  : 			{
; 145  : 			goto _Invalid_parameter;
; 146  : 			}
; 147  : 
; 148  : 		_Ptr = reinterpret_cast<void *>(_Ptr_container);

	mov	rcx, rax
$LN30@basic_stri:

; 149  : 		}
; 150  : 
; 151  : 	::operator delete(_Ptr);

	call	??3@YAXPEAX@Z				; operator delete
$LN27@basic_stri:
; File c:\program files (x86)\microsoft visual studio\2017\enterprise\vc\tools\msvc\14.11.25503\include\xstring

; 3717 : 		_My_data._Mysize = 0;

	mov	QWORD PTR [rbx+16], 0

; 3718 : 		_My_data._Myres = this->_BUF_SIZE - 1;

	mov	QWORD PTR [rbx+24], 15
; File c:\program files (x86)\microsoft visual studio\2017\enterprise\vc\tools\msvc\14.11.25503\include\iosfwd

; 517  : 		_Left = _Right;

	mov	BYTE PTR [rbx], 0
; File c:\program files (x86)\microsoft visual studio\2017\enterprise\vc\tools\msvc\14.11.25503\include\xstring

; 2247 : 		}

	add	rsp, 32					; 00000020H
	pop	rbx
	ret	0
$_Invalid_parameter$50:
; File c:\program files (x86)\microsoft visual studio\2017\enterprise\vc\tools\msvc\14.11.25503\include\xmemory0

; 155  : 	_SCL_SECURE_INVALID_ARGUMENT_NO_ASSERT;

	call	QWORD PTR __imp__invalid_parameter_noinfo_noreturn
	int	3
$LN48@basic_stri:
??1?$basic_string@DU?$char_traits@D@std@@V?$allocator@D@2@@std@@QEAA@XZ ENDP ; std::basic_string<char,std::char_traits<char>,std::allocator<char> >::~basic_string<char,std::char_traits<char>,std::allocator<char> >
_TEXT	ENDS
; Function compile flags: /Ogtpy
; File c:\program files (x86)\microsoft visual studio\2017\enterprise\vc\tools\msvc\14.11.25503\include\xstring
; File c:\program files (x86)\microsoft visual studio\2017\enterprise\vc\tools\msvc\14.11.25503\include\iosfwd
; File c:\program files (x86)\microsoft visual studio\2017\enterprise\vc\tools\msvc\14.11.25503\include\xstring
;	COMDAT ??0?$basic_string@DU?$char_traits@D@std@@V?$allocator@D@2@@std@@QEAA@QEBD@Z
_TEXT	SEGMENT
this$ = 48
_Ptr$dead$ = 56
??0?$basic_string@DU?$char_traits@D@std@@V?$allocator@D@2@@std@@QEAA@QEBD@Z PROC ; std::basic_string<char,std::char_traits<char>,std::allocator<char> >::basic_string<char,std::char_traits<char>,std::allocator<char> >, COMDAT

; 1977 : 		{	// construct from [_Ptr, <null>)

$LN31:
	push	rbx
	sub	rsp, 32					; 00000020H

; 3698 : 		_My_data._Mysize = 0;

	mov	QWORD PTR [rcx+16], 0

; 2452 : 		return (assign(_Ptr, _Convert_size<size_type>(_Traits::length(_Ptr))));

	mov	r8d, 14

; 3699 : 		_My_data._Myres = this->_BUF_SIZE - 1;

	mov	QWORD PTR [rcx+24], 15

; 1977 : 		{	// construct from [_Ptr, <null>)

	mov	rbx, rcx
; File c:\program files (x86)\microsoft visual studio\2017\enterprise\vc\tools\msvc\14.11.25503\include\iosfwd

; 517  : 		_Left = _Right;

	mov	BYTE PTR [rcx], 0
; File c:\program files (x86)\microsoft visual studio\2017\enterprise\vc\tools\msvc\14.11.25503\include\xstring

; 2452 : 		return (assign(_Ptr, _Convert_size<size_type>(_Traits::length(_Ptr))));

	call	?assign@?$basic_string@DU?$char_traits@D@std@@V?$allocator@D@2@@std@@QEAAAEAV12@QEBD_K@Z ; std::basic_string<char,std::char_traits<char>,std::allocator<char> >::assign

; 1978 : 		_Tidy_init();
; 1979 : 		assign(_Ptr);
; 1980 : 		}

	mov	rax, rbx
	add	rsp, 32					; 00000020H
	pop	rbx
	ret	0
??0?$basic_string@DU?$char_traits@D@std@@V?$allocator@D@2@@std@@QEAA@QEBD@Z ENDP ; std::basic_string<char,std::char_traits<char>,std::allocator<char> >::basic_string<char,std::char_traits<char>,std::allocator<char> >
_TEXT	ENDS
; Function compile flags: /Ogtpy
;	COMDAT ??1?$_String_alloc@U?$_String_base_types@DV?$allocator@D@std@@@std@@@std@@QEAA@XZ
_TEXT	SEGMENT
this$dead$ = 8
??1?$_String_alloc@U?$_String_base_types@DV?$allocator@D@std@@@std@@@std@@QEAA@XZ PROC ; std::_String_alloc<std::_String_base_types<char,std::allocator<char> > >::~_String_alloc<std::_String_base_types<char,std::allocator<char> > >, COMDAT
	ret	0
??1?$_String_alloc@U?$_String_base_types@DV?$allocator@D@std@@@std@@@std@@QEAA@XZ ENDP ; std::_String_alloc<std::_String_base_types<char,std::allocator<char> > >::~_String_alloc<std::_String_base_types<char,std::allocator<char> > >
_TEXT	ENDS
; Function compile flags: /Ogtpy
;	COMDAT ??1?$_Compressed_pair@V?$allocator@D@std@@V?$_String_val@U?$_Simple_types@D@std@@@2@$00@std@@QEAA@XZ
_TEXT	SEGMENT
this$dead$ = 8
??1?$_Compressed_pair@V?$allocator@D@std@@V?$_String_val@U?$_Simple_types@D@std@@@2@$00@std@@QEAA@XZ PROC ; std::_Compressed_pair<std::allocator<char>,std::_String_val<std::_Simple_types<char> >,1>::~_Compressed_pair<std::allocator<char>,std::_String_val<std::_Simple_types<char> >,1>, COMDAT
	ret	0
??1?$_Compressed_pair@V?$allocator@D@std@@V?$_String_val@U?$_Simple_types@D@std@@@2@$00@std@@QEAA@XZ ENDP ; std::_Compressed_pair<std::allocator<char>,std::_String_val<std::_Simple_types<char> >,1>::~_Compressed_pair<std::allocator<char>,std::_String_val<std::_Simple_types<char> >,1>
_TEXT	ENDS
; Function compile flags: /Ogtpy
;	COMDAT ??1?$_String_val@U?$_Simple_types@D@std@@@std@@QEAA@XZ
_TEXT	SEGMENT
this$dead$ = 8
??1?$_String_val@U?$_Simple_types@D@std@@@std@@QEAA@XZ PROC ; std::_String_val<std::_Simple_types<char> >::~_String_val<std::_Simple_types<char> >, COMDAT
	ret	0
??1?$_String_val@U?$_Simple_types@D@std@@@std@@QEAA@XZ ENDP ; std::_String_val<std::_Simple_types<char> >::~_String_val<std::_Simple_types<char> >
_TEXT	ENDS
; Function compile flags: /Ogtpy
; File c:\program files (x86)\microsoft visual studio\2017\enterprise\vc\tools\msvc\14.11.25503\include\xstring
;	COMDAT ??1_Bxty@?$_String_val@U?$_Simple_types@D@std@@@std@@QEAA@XZ
_TEXT	SEGMENT
this$dead$ = 8
??1_Bxty@?$_String_val@U?$_Simple_types@D@std@@@std@@QEAA@XZ PROC ; std::_String_val<std::_Simple_types<char> >::_Bxty::~_Bxty, COMDAT

; 1654 : 			}

	ret	0
??1_Bxty@?$_String_val@U?$_Simple_types@D@std@@@std@@QEAA@XZ ENDP ; std::_String_val<std::_Simple_types<char> >::_Bxty::~_Bxty
_TEXT	ENDS
; Function compile flags: /Ogtpy
; File c:\program files (x86)\microsoft visual studio\2017\enterprise\vc\tools\msvc\14.11.25503\include\xstring
;	COMDAT ?_Large_string_engaged@?$_String_val@U?$_Simple_types@D@std@@@std@@QEBA_NXZ
_TEXT	SEGMENT
this$ = 8
?_Large_string_engaged@?$_String_val@U?$_Simple_types@D@std@@@std@@QEBA_NXZ PROC ; std::_String_val<std::_Simple_types<char> >::_Large_string_engaged, COMDAT

; 1617 : 		return (_BUF_SIZE <= _Myres);

	cmp	QWORD PTR [rcx+24], 16
	setae	al

; 1618 : 		}

	ret	0
?_Large_string_engaged@?$_String_val@U?$_Simple_types@D@std@@@std@@QEBA_NXZ ENDP ; std::_String_val<std::_Simple_types<char> >::_Large_string_engaged
_TEXT	ENDS
; Function compile flags: /Ogtpy
; File c:\program files (x86)\microsoft visual studio\2017\enterprise\vc\tools\msvc\14.11.25503\include\xstring
;	COMDAT ?_Myptr@?$_String_val@U?$_Simple_types@D@std@@@std@@QEBAPEBDXZ
_TEXT	SEGMENT
this$ = 8
?_Myptr@?$_String_val@U?$_Simple_types@D@std@@@std@@QEBAPEBDXZ PROC ; std::_String_val<std::_Simple_types<char> >::_Myptr, COMDAT

; 1617 : 		return (_BUF_SIZE <= _Myres);

	cmp	QWORD PTR [rcx+24], 16

; 1606 : 		const value_type * _Result = _Bx._Buf;
; 1607 : 		if (_Large_string_engaged())

	jb	SHORT $LN8@Myptr

; 1608 : 			{
; 1609 : 			_Result = _Unfancy(_Bx._Ptr);
; 1610 : 			}
; 1611 : 
; 1612 : 		return (_Result);

	mov	rax, QWORD PTR [rcx]

; 1613 : 		}

	ret	0
$LN8@Myptr:

; 1608 : 			{
; 1609 : 			_Result = _Unfancy(_Bx._Ptr);
; 1610 : 			}
; 1611 : 
; 1612 : 		return (_Result);

	mov	rax, rcx

; 1613 : 		}

	ret	0
?_Myptr@?$_String_val@U?$_Simple_types@D@std@@@std@@QEBAPEBDXZ ENDP ; std::_String_val<std::_Simple_types<char> >::_Myptr
_TEXT	ENDS
; Function compile flags: /Ogtpy
; File c:\program files (x86)\microsoft visual studio\2017\enterprise\vc\tools\msvc\14.11.25503\include\xstring
;	COMDAT ?_Myptr@?$_String_val@U?$_Simple_types@D@std@@@std@@QEAAPEADXZ
_TEXT	SEGMENT
this$ = 8
?_Myptr@?$_String_val@U?$_Simple_types@D@std@@@std@@QEAAPEADXZ PROC ; std::_String_val<std::_Simple_types<char> >::_Myptr, COMDAT

; 1617 : 		return (_BUF_SIZE <= _Myres);

	cmp	QWORD PTR [rcx+24], 16

; 1595 : 		value_type * _Result = _Bx._Buf;
; 1596 : 		if (_Large_string_engaged())

	jb	SHORT $LN8@Myptr

; 1597 : 			{
; 1598 : 			_Result = _Unfancy(_Bx._Ptr);
; 1599 : 			}
; 1600 : 
; 1601 : 		return (_Result);

	mov	rax, QWORD PTR [rcx]

; 1602 : 		}

	ret	0
$LN8@Myptr:

; 1597 : 			{
; 1598 : 			_Result = _Unfancy(_Bx._Ptr);
; 1599 : 			}
; 1600 : 
; 1601 : 		return (_Result);

	mov	rax, rcx

; 1602 : 		}

	ret	0
?_Myptr@?$_String_val@U?$_Simple_types@D@std@@@std@@QEAAPEADXZ ENDP ; std::_String_val<std::_Simple_types<char> >::_Myptr
_TEXT	ENDS
; Function compile flags: /Ogtpy
; File c:\program files (x86)\microsoft visual studio\2017\enterprise\vc\tools\msvc\14.11.25503\include\xstring
;	COMDAT ?_Get_data@?$_String_alloc@U?$_String_base_types@DV?$allocator@D@std@@@std@@@std@@QEBAAEBV?$_String_val@U?$_Simple_types@D@std@@@2@XZ
_TEXT	SEGMENT
this$ = 8
?_Get_data@?$_String_alloc@U?$_String_base_types@DV?$allocator@D@std@@@std@@@std@@QEBAAEBV?$_String_val@U?$_Simple_types@D@std@@@2@XZ PROC ; std::_String_alloc<std::_String_base_types<char,std::allocator<char> > >::_Get_data, COMDAT

; 1840 : 		return (_Mypair._Get_second());

	mov	rax, rcx

; 1841 : 		}

	ret	0
?_Get_data@?$_String_alloc@U?$_String_base_types@DV?$allocator@D@std@@@std@@@std@@QEBAAEBV?$_String_val@U?$_Simple_types@D@std@@@2@XZ ENDP ; std::_String_alloc<std::_String_base_types<char,std::allocator<char> > >::_Get_data
_TEXT	ENDS
; Function compile flags: /Ogtpy
; File c:\program files (x86)\microsoft visual studio\2017\enterprise\vc\tools\msvc\14.11.25503\include\xstring
;	COMDAT ?_Get_data@?$_String_alloc@U?$_String_base_types@DV?$allocator@D@std@@@std@@@std@@QEAAAEAV?$_String_val@U?$_Simple_types@D@std@@@2@XZ
_TEXT	SEGMENT
this$ = 8
?_Get_data@?$_String_alloc@U?$_String_base_types@DV?$allocator@D@std@@@std@@@std@@QEAAAEAV?$_String_val@U?$_Simple_types@D@std@@@2@XZ PROC ; std::_String_alloc<std::_String_base_types<char,std::allocator<char> > >::_Get_data, COMDAT

; 1835 : 		return (_Mypair._Get_second());

	mov	rax, rcx

; 1836 : 		}

	ret	0
?_Get_data@?$_String_alloc@U?$_String_base_types@DV?$allocator@D@std@@@std@@@std@@QEAAAEAV?$_String_val@U?$_Simple_types@D@std@@@2@XZ ENDP ; std::_String_alloc<std::_String_base_types<char,std::allocator<char> > >::_Get_data
_TEXT	ENDS
; Function compile flags: /Ogtpy
; File c:\program files (x86)\microsoft visual studio\2017\enterprise\vc\tools\msvc\14.11.25503\include\xstring
;	COMDAT ?_Getal@?$_String_alloc@U?$_String_base_types@DV?$allocator@D@std@@@std@@@std@@QEBAAEBV?$allocator@D@2@XZ
_TEXT	SEGMENT
this$ = 8
?_Getal@?$_String_alloc@U?$_String_base_types@DV?$allocator@D@std@@@std@@@std@@QEBAAEBV?$allocator@D@2@XZ PROC ; std::_String_alloc<std::_String_base_types<char,std::allocator<char> > >::_Getal, COMDAT

; 1830 : 		return (_Mypair._Get_first());

	mov	rax, rcx

; 1831 : 		}

	ret	0
?_Getal@?$_String_alloc@U?$_String_base_types@DV?$allocator@D@std@@@std@@@std@@QEBAAEBV?$allocator@D@2@XZ ENDP ; std::_String_alloc<std::_String_base_types<char,std::allocator<char> > >::_Getal
_TEXT	ENDS
; Function compile flags: /Ogtpy
; File c:\program files (x86)\microsoft visual studio\2017\enterprise\vc\tools\msvc\14.11.25503\include\xstring
;	COMDAT ?_Getal@?$_String_alloc@U?$_String_base_types@DV?$allocator@D@std@@@std@@@std@@QEAAAEAV?$allocator@D@2@XZ
_TEXT	SEGMENT
this$ = 8
?_Getal@?$_String_alloc@U?$_String_base_types@DV?$allocator@D@std@@@std@@@std@@QEAAAEAV?$allocator@D@2@XZ PROC ; std::_String_alloc<std::_String_base_types<char,std::allocator<char> > >::_Getal, COMDAT

; 1825 : 		return (_Mypair._Get_first());

	mov	rax, rcx

; 1826 : 		}

	ret	0
?_Getal@?$_String_alloc@U?$_String_base_types@DV?$allocator@D@std@@@std@@@std@@QEAAAEAV?$allocator@D@2@XZ ENDP ; std::_String_alloc<std::_String_base_types<char,std::allocator<char> > >::_Getal
_TEXT	ENDS
; Function compile flags: /Ogtpy
; File c:\program files (x86)\microsoft visual studio\2017\enterprise\vc\tools\msvc\14.11.25503\include\xstring
;	COMDAT ?_Orphan_all@?$_String_alloc@U?$_String_base_types@DV?$allocator@D@std@@@std@@@std@@QEAAXXZ
_TEXT	SEGMENT
this$dead$ = 8
?_Orphan_all@?$_String_alloc@U?$_String_base_types@DV?$allocator@D@std@@@std@@@std@@QEAAXXZ PROC ; std::_String_alloc<std::_String_base_types<char,std::allocator<char> > >::_Orphan_all, COMDAT

; 1815 : 		_Get_data()._Orphan_all();
; 1816 : 		}

	ret	0
?_Orphan_all@?$_String_alloc@U?$_String_base_types@DV?$allocator@D@std@@@std@@@std@@QEAAXXZ ENDP ; std::_String_alloc<std::_String_base_types<char,std::allocator<char> > >::_Orphan_all
_TEXT	ENDS
; Function compile flags: /Ogtpy
; File c:\program files (x86)\microsoft visual studio\2017\enterprise\vc\tools\msvc\14.11.25503\include\xstring
;	COMDAT ??0?$_String_alloc@U?$_String_base_types@DV?$allocator@D@std@@@std@@@std@@QEAA@XZ
_TEXT	SEGMENT
this$ = 8
??0?$_String_alloc@U?$_String_base_types@DV?$allocator@D@std@@@std@@@std@@QEAA@XZ PROC ; std::_String_alloc<std::_String_base_types<char,std::allocator<char> > >::_String_alloc<std::_String_base_types<char,std::allocator<char> > >, COMDAT

; 1576 : 		_Mysize(0),

	xor	eax, eax
	mov	QWORD PTR [rcx+16], rax

; 1577 : 		_Myres(0)

	mov	QWORD PTR [rcx+24], rax

; 1703 : 		}

	mov	rax, rcx
	ret	0
??0?$_String_alloc@U?$_String_base_types@DV?$allocator@D@std@@@std@@@std@@QEAA@XZ ENDP ; std::_String_alloc<std::_String_base_types<char,std::allocator<char> > >::_String_alloc<std::_String_base_types<char,std::allocator<char> > >
_TEXT	ENDS
; Function compile flags: /Ogtpy
; File c:\program files (x86)\microsoft visual studio\2017\enterprise\vc\tools\msvc\14.11.25503\include\xstring
; File c:\program files (x86)\microsoft visual studio\2017\enterprise\vc\tools\msvc\14.11.25503\include\xmemory0
; File c:\program files (x86)\microsoft visual studio\2017\enterprise\vc\tools\msvc\14.11.25503\include\xstring
; File c:\program files (x86)\microsoft visual studio\2017\enterprise\vc\tools\msvc\14.11.25503\include\xmemory0
; File c:\program files (x86)\microsoft visual studio\2017\enterprise\vc\tools\msvc\14.11.25503\include\xstring
; File c:\program files (x86)\microsoft visual studio\2017\enterprise\vc\tools\msvc\14.11.25503\include\iosfwd
; File c:\program files (x86)\microsoft visual studio\2017\enterprise\vc\tools\msvc\14.11.25503\include\xstring
; File c:\program files (x86)\microsoft visual studio\2017\enterprise\vc\tools\msvc\14.11.25503\include\xmemory0
; File c:\program files (x86)\microsoft visual studio\2017\enterprise\vc\tools\msvc\14.11.25503\include\xstring
;	COMDAT ?_Tidy_deallocate@?$basic_string@DU?$char_traits@D@std@@V?$allocator@D@2@@std@@QEAAXXZ
_TEXT	SEGMENT
this$ = 48
?_Tidy_deallocate@?$basic_string@DU?$char_traits@D@std@@V?$allocator@D@2@@std@@QEAAXXZ PROC ; std::basic_string<char,std::char_traits<char>,std::allocator<char> >::_Tidy_deallocate, COMDAT

; 3706 : 		{	// initialize buffer, deallocating any storage

$LN46:
	push	rbx
	sub	rsp, 32					; 00000020H

; 1617 : 		return (_BUF_SIZE <= _Myres);

	mov	rax, QWORD PTR [rcx+24]

; 3706 : 		{	// initialize buffer, deallocating any storage

	mov	rbx, rcx

; 1617 : 		return (_BUF_SIZE <= _Myres);

	cmp	rax, 16

; 3707 : 		this->_Orphan_all();
; 3708 : 		auto& _My_data = this->_Get_data();
; 3709 : 		if (_My_data._Large_string_engaged())

	jb	SHORT $LN25@Tidy_deall
; File c:\program files (x86)\microsoft visual studio\2017\enterprise\vc\tools\msvc\14.11.25503\include\xmemory0

; 941  : 		_Deallocate(_Ptr, _Count, sizeof(_Ty));

	mov	rcx, QWORD PTR [rcx]
; File c:\program files (x86)\microsoft visual studio\2017\enterprise\vc\tools\msvc\14.11.25503\include\xstring

; 3714 : 			_Al.deallocate(_Ptr, _My_data._Myres + 1);

	inc	rax
; File c:\program files (x86)\microsoft visual studio\2017\enterprise\vc\tools\msvc\14.11.25503\include\xmemory0

; 107  : 	if (_BIG_ALLOCATION_THRESHOLD <= _Count * _Sz)

	cmp	rax, 4096				; 00001000H
	jb	SHORT $LN28@Tidy_deall

; 108  : 		{	// deallocate large block
; 109  : 		const uintptr_t _Ptr_user = reinterpret_cast<uintptr_t>(_Ptr);
; 110  : 		if ((_Ptr_user & (_BIG_ALLOCATION_ALIGNMENT - 1)) != 0)

	test	cl, 31
	jne	SHORT $_Invalid_parameter$47

; 111  : 			{
; 112  : 			goto _Invalid_parameter;
; 113  : 			}
; 114  : 
; 115  : 		const uintptr_t _Ptr_ptr = _Ptr_user - sizeof(void *);
; 116  : 		const uintptr_t _Ptr_container =
; 117  : 			*reinterpret_cast<uintptr_t *>(_Ptr_ptr);

	mov	rax, QWORD PTR [rcx-8]

; 118  : 
; 119  :  #ifdef _DEBUG
; 120  : 		// If the following asserts, it likely means that we are performing
; 121  : 		// an aligned delete on memory coming from an unaligned allocation.
; 122  : 		if (reinterpret_cast<uintptr_t *>(_Ptr_ptr)[-1] != _BIG_ALLOCATION_SENTINEL)
; 123  : 			{
; 124  : 			goto _Invalid_parameter;
; 125  : 			}
; 126  :  #endif /* _DEBUG */
; 127  : 
; 128  : 		// Extra paranoia on aligned allocation/deallocation
; 129  : 		if (_Ptr_container >= _Ptr_user)

	cmp	rax, rcx
	jae	SHORT $_Invalid_parameter$47
	sub	rcx, rax
	sub	rcx, 8
	cmp	rcx, 31
	ja	SHORT $_Invalid_parameter$47

; 130  : 			{
; 131  : 			goto _Invalid_parameter;
; 132  : 			}
; 133  : 
; 134  :  #ifdef _DEBUG
; 135  : 		if (2 * sizeof(void *) > _Ptr_user - _Ptr_container)
; 136  :  #else /* _DEBUG */
; 137  : 		if (sizeof(void *) > _Ptr_user - _Ptr_container)
; 138  :  #endif /* _DEBUG */
; 139  : 			{
; 140  : 			goto _Invalid_parameter;
; 141  : 			}
; 142  : 
; 143  : 		if (_Ptr_user - _Ptr_container > _NON_USER_SIZE)
; 144  : 			{
; 145  : 			goto _Invalid_parameter;
; 146  : 			}
; 147  : 
; 148  : 		_Ptr = reinterpret_cast<void *>(_Ptr_container);

	mov	rcx, rax
$LN28@Tidy_deall:

; 149  : 		}
; 150  : 
; 151  : 	::operator delete(_Ptr);

	call	??3@YAXPEAX@Z				; operator delete
$LN25@Tidy_deall:
; File c:\program files (x86)\microsoft visual studio\2017\enterprise\vc\tools\msvc\14.11.25503\include\xstring

; 3717 : 		_My_data._Mysize = 0;

	mov	QWORD PTR [rbx+16], 0

; 3718 : 		_My_data._Myres = this->_BUF_SIZE - 1;

	mov	QWORD PTR [rbx+24], 15
; File c:\program files (x86)\microsoft visual studio\2017\enterprise\vc\tools\msvc\14.11.25503\include\iosfwd

; 517  : 		_Left = _Right;

	mov	BYTE PTR [rbx], 0
; File c:\program files (x86)\microsoft visual studio\2017\enterprise\vc\tools\msvc\14.11.25503\include\xstring

; 3722 : 		}

	add	rsp, 32					; 00000020H
	pop	rbx
	ret	0
$_Invalid_parameter$47:
; File c:\program files (x86)\microsoft visual studio\2017\enterprise\vc\tools\msvc\14.11.25503\include\xmemory0

; 155  : 	_SCL_SECURE_INVALID_ARGUMENT_NO_ASSERT;

	call	QWORD PTR __imp__invalid_parameter_noinfo_noreturn
	int	3
$LN45@Tidy_deall:
?_Tidy_deallocate@?$basic_string@DU?$char_traits@D@std@@V?$allocator@D@2@@std@@QEAAXXZ ENDP ; std::basic_string<char,std::char_traits<char>,std::allocator<char> >::_Tidy_deallocate
_TEXT	ENDS
; Function compile flags: /Ogtpy
; File c:\program files (x86)\microsoft visual studio\2017\enterprise\vc\tools\msvc\14.11.25503\include\xstring
; File c:\program files (x86)\microsoft visual studio\2017\enterprise\vc\tools\msvc\14.11.25503\include\iosfwd
; File c:\program files (x86)\microsoft visual studio\2017\enterprise\vc\tools\msvc\14.11.25503\include\xstring
;	COMDAT ?_Tidy_init@?$basic_string@DU?$char_traits@D@std@@V?$allocator@D@2@@std@@QEAAXXZ
_TEXT	SEGMENT
this$ = 8
?_Tidy_init@?$basic_string@DU?$char_traits@D@std@@V?$allocator@D@2@@std@@QEAAXXZ PROC ; std::basic_string<char,std::char_traits<char>,std::allocator<char> >::_Tidy_init, COMDAT

; 3697 : 		auto& _My_data = this->_Get_data();
; 3698 : 		_My_data._Mysize = 0;

	mov	QWORD PTR [rcx+16], 0

; 3699 : 		_My_data._Myres = this->_BUF_SIZE - 1;

	mov	QWORD PTR [rcx+24], 15
; File c:\program files (x86)\microsoft visual studio\2017\enterprise\vc\tools\msvc\14.11.25503\include\iosfwd

; 517  : 		_Left = _Right;

	mov	BYTE PTR [rcx], 0
; File c:\program files (x86)\microsoft visual studio\2017\enterprise\vc\tools\msvc\14.11.25503\include\xstring

; 3703 : 		}

	ret	0
?_Tidy_init@?$basic_string@DU?$char_traits@D@std@@V?$allocator@D@2@@std@@QEAAXXZ ENDP ; std::basic_string<char,std::char_traits<char>,std::allocator<char> >::_Tidy_init
_TEXT	ENDS
; Function compile flags: /Ogtpy
; File c:\program files (x86)\microsoft visual studio\2017\enterprise\vc\tools\msvc\14.11.25503\include\xstring
;	COMDAT ?max_size@?$basic_string@DU?$char_traits@D@std@@V?$allocator@D@2@@std@@QEBA_KXZ
_TEXT	SEGMENT
this$dead$ = 8
?max_size@?$basic_string@DU?$char_traits@D@std@@V?$allocator@D@2@@std@@QEBA_KXZ PROC ; std::basic_string<char,std::char_traits<char>,std::allocator<char> >::max_size, COMDAT

; 3067 : 		const size_type _Alloc_max = _Alty_traits::max_size(this->_Getal());
; 3068 : 		const size_type _Storage_max = // can always store small string
; 3069 : 			_Max_value(_Alloc_max, static_cast<size_type>(this->_BUF_SIZE));
; 3070 : 		return (_Min_value(

	mov	rax, 9223372036854775807		; 7fffffffffffffffH

; 3071 : 			static_cast<size_type>((numeric_limits<difference_type>::max)()),
; 3072 : 			_Storage_max - 1 // -1 is for null terminator and/or npos
; 3073 : 			));
; 3074 : 
; 3075 : 		}

	ret	0
?max_size@?$basic_string@DU?$char_traits@D@std@@V?$allocator@D@2@@std@@QEBA_KXZ ENDP ; std::basic_string<char,std::char_traits<char>,std::allocator<char> >::max_size
_TEXT	ENDS
; Function compile flags: /Ogtpy
; File c:\program files (x86)\microsoft visual studio\2017\enterprise\vc\tools\msvc\14.11.25503\include\utility
;	COMDAT ??$_Max_value@_K@std@@YAAEB_KAEB_K0@Z
_TEXT	SEGMENT
_Left$ = 8
_Right$ = 16
??$_Max_value@_K@std@@YAAEB_KAEB_K0@Z PROC		; std::_Max_value<unsigned __int64>, COMDAT

; 32   : 	return (_Left < _Right ? _Right : _Left);

	mov	rax, QWORD PTR [rdx]
	cmp	QWORD PTR [rcx], rax
	cmovb	rcx, rdx
	mov	rax, rcx

; 33   : 	}

	ret	0
??$_Max_value@_K@std@@YAAEB_KAEB_K0@Z ENDP		; std::_Max_value<unsigned __int64>
_TEXT	ENDS
; Function compile flags: /Ogtpy
; File c:\program files (x86)\microsoft visual studio\2017\enterprise\vc\tools\msvc\14.11.25503\include\xstring
;	COMDAT ?size@?$basic_string@DU?$char_traits@D@std@@V?$allocator@D@2@@std@@QEBA_KXZ
_TEXT	SEGMENT
this$ = 8
?size@?$basic_string@DU?$char_traits@D@std@@V?$allocator@D@2@@std@@QEBA_KXZ PROC ; std::basic_string<char,std::char_traits<char>,std::allocator<char> >::size, COMDAT

; 3062 : 		return (this->_Get_data()._Mysize);

	mov	rax, QWORD PTR [rcx+16]

; 3063 : 		}

	ret	0
?size@?$basic_string@DU?$char_traits@D@std@@V?$allocator@D@2@@std@@QEBA_KXZ ENDP ; std::basic_string<char,std::char_traits<char>,std::allocator<char> >::size
_TEXT	ENDS
; Function compile flags: /Ogtpy
; File c:\program files (x86)\microsoft visual studio\2017\enterprise\vc\tools\msvc\14.11.25503\include\xstring
;	COMDAT ?assign@?$basic_string@DU?$char_traits@D@std@@V?$allocator@D@2@@std@@QEAAAEAV12@QEBD@Z
_TEXT	SEGMENT
this$ = 8
_Ptr$dead$ = 16
?assign@?$basic_string@DU?$char_traits@D@std@@V?$allocator@D@2@@std@@QEAAAEAV12@QEBD@Z PROC ; std::basic_string<char,std::char_traits<char>,std::allocator<char> >::assign, COMDAT

; 2452 : 		return (assign(_Ptr, _Convert_size<size_type>(_Traits::length(_Ptr))));

	mov	r8d, 14
	jmp	?assign@?$basic_string@DU?$char_traits@D@std@@V?$allocator@D@2@@std@@QEAAAEAV12@QEBD_K@Z ; std::basic_string<char,std::char_traits<char>,std::allocator<char> >::assign
?assign@?$basic_string@DU?$char_traits@D@std@@V?$allocator@D@2@@std@@QEAAAEAV12@QEBD@Z ENDP ; std::basic_string<char,std::char_traits<char>,std::allocator<char> >::assign
_TEXT	ENDS
; Function compile flags: /Ogtpy
; File c:\program files (x86)\microsoft visual studio\2017\enterprise\vc\tools\msvc\14.11.25503\include\xstring
; File c:\program files (x86)\microsoft visual studio\2017\enterprise\vc\tools\msvc\14.11.25503\include\xstddef
; File c:\program files (x86)\microsoft visual studio\2017\enterprise\vc\tools\msvc\14.11.25503\include\xstring
; File c:\program files (x86)\microsoft visual studio\2017\enterprise\vc\tools\msvc\14.11.25503\include\iosfwd
; File c:\program files (x86)\microsoft visual studio\2017\enterprise\vc\tools\msvc\14.11.25503\include\xstring
; File c:\program files (x86)\microsoft visual studio\2017\enterprise\vc\tools\msvc\14.11.25503\include\iosfwd
; File c:\program files (x86)\microsoft visual studio\2017\enterprise\vc\tools\msvc\14.11.25503\include\xstring
; File c:\program files (x86)\microsoft visual studio\2017\enterprise\vc\tools\msvc\14.11.25503\include\xmemory0
; File c:\program files (x86)\microsoft visual studio\2017\enterprise\vc\tools\msvc\14.11.25503\include\iosfwd
; File c:\program files (x86)\microsoft visual studio\2017\enterprise\vc\tools\msvc\14.11.25503\include\xstring
; File c:\program files (x86)\microsoft visual studio\2017\enterprise\vc\tools\msvc\14.11.25503\include\iosfwd
; File c:\program files (x86)\microsoft visual studio\2017\enterprise\vc\tools\msvc\14.11.25503\include\xstring
; File c:\program files (x86)\microsoft visual studio\2017\enterprise\vc\tools\msvc\14.11.25503\include\iosfwd
; File c:\program files (x86)\microsoft visual studio\2017\enterprise\vc\tools\msvc\14.11.25503\include\xstring
; File c:\program files (x86)\microsoft visual studio\2017\enterprise\vc\tools\msvc\14.11.25503\include\xmemory0
; File c:\program files (x86)\microsoft visual studio\2017\enterprise\vc\tools\msvc\14.11.25503\include\xstring
; File c:\program files (x86)\microsoft visual studio\2017\enterprise\vc\tools\msvc\14.11.25503\include\xmemory0
; File c:\program files (x86)\microsoft visual studio\2017\enterprise\vc\tools\msvc\14.11.25503\include\xstring
; File c:\program files (x86)\microsoft visual studio\2017\enterprise\vc\tools\msvc\14.11.25503\include\xmemory0
; File c:\program files (x86)\microsoft visual studio\2017\enterprise\vc\tools\msvc\14.11.25503\include\xstring
; File c:\program files (x86)\microsoft visual studio\2017\enterprise\vc\tools\msvc\14.11.25503\include\xmemory0
; File c:\program files (x86)\microsoft visual studio\2017\enterprise\vc\tools\msvc\14.11.25503\include\xstring
;	COMDAT ?assign@?$basic_string@DU?$char_traits@D@std@@V?$allocator@D@2@@std@@QEAAAEAV12@QEBD_K@Z
_TEXT	SEGMENT
this$ = 80
_Ptr$dead$ = 88
_Count$ = 96
?assign@?$basic_string@DU?$char_traits@D@std@@V?$allocator@D@2@@std@@QEAAAEAV12@QEBD_K@Z PROC ; std::basic_string<char,std::char_traits<char>,std::allocator<char> >::assign, COMDAT

; 2433 : 		{	// assign [_Ptr, _Ptr + _Count)

$LN154:
	push	rbx
	push	rsi
	push	rdi
	push	r14
	sub	rsp, 40					; 00000028H

; 2434 : 		auto& _My_data = this->_Get_data();
; 2435 : 		if (_Count <= _My_data._Myres)

	mov	r14, QWORD PTR [rcx+24]
	mov	rsi, r8
	mov	rbx, rcx
	cmp	r8, r14
	ja	SHORT $LN2@assign

; 1595 : 		value_type * _Result = _Bx._Buf;

	mov	rdi, rcx

; 1617 : 		return (_BUF_SIZE <= _Myres);

	cmp	r14, 16

; 1596 : 		if (_Large_string_engaged())

	jb	SHORT $LN11@assign
; File c:\program files (x86)\microsoft visual studio\2017\enterprise\vc\tools\msvc\14.11.25503\include\xstddef

; 265  : 	return (_Ptr);

	mov	rdi, QWORD PTR [rcx]
$LN11@assign:
; File c:\program files (x86)\microsoft visual studio\2017\enterprise\vc\tools\msvc\14.11.25503\include\xstring

; 2438 : 			_My_data._Mysize = _Count;

	mov	QWORD PTR [rcx+16], rsi
; File c:\program files (x86)\microsoft visual studio\2017\enterprise\vc\tools\msvc\14.11.25503\include\iosfwd

; 506  : 		return ((_Elem *)_CSTD memmove(_First1, _First2, _Count));

	lea	rdx, OFFSET FLAT:??_C@_0P@PBMJDCHB@CPU?5Blocked?516?$AA@
	mov	rcx, rdi
	call	QWORD PTR __imp_memmove
; File c:\program files (x86)\microsoft visual studio\2017\enterprise\vc\tools\msvc\14.11.25503\include\xstring

; 2444 : 		return (_Reallocate_for(_Count, [](_Elem * const _New_ptr, const size_type _Count, const _Elem * const _Ptr) {

	mov	rax, rbx
; File c:\program files (x86)\microsoft visual studio\2017\enterprise\vc\tools\msvc\14.11.25503\include\iosfwd

; 517  : 		_Left = _Right;

	mov	BYTE PTR [rsi+rdi], 0
; File c:\program files (x86)\microsoft visual studio\2017\enterprise\vc\tools\msvc\14.11.25503\include\xstring

; 2448 : 		}

	add	rsp, 40					; 00000028H
	pop	r14
	pop	rdi
	pop	rsi
	pop	rbx
	ret	0
$LN2@assign:

; 3611 : 		if (_New_size > max_size())

	mov	rdi, 9223372036854775807		; 7fffffffffffffffH
	cmp	rsi, rdi
	ja	$LN152@assign

; 3591 : 		const size_type _Masked = _Requested | this->_ALLOC_MASK;

	mov	rcx, rsi
	or	rcx, 15

; 3592 : 		if (_Masked > _Max)

	cmp	rcx, rdi
	ja	SHORT $LN55@assign

; 3593 : 			{	// the mask overflows, settle for max_size()
; 3594 : 			return (_Max);
; 3595 : 			}
; 3596 : 
; 3597 : 		const size_type _Old = _My_data._Myres;
; 3598 : 		if (_Old > _Max - _Old / 2)

	mov	rdx, r14
	mov	rax, rdi
	shr	rdx, 1
	sub	rax, rdx
	cmp	r14, rax
	ja	SHORT $LN55@assign

; 3599 : 			{	// similarly, geometric overflows
; 3600 : 			return (_Max);
; 3601 : 			}
; 3602 : 
; 3603 : 		return (_Max_value(_Masked, _Old + _Old / 2));

	lea	rax, QWORD PTR [rdx+r14]
	mov	rdi, rcx
	cmp	rcx, rax
	cmovb	rdi, rax
$LN55@assign:

; 3620 : 		const pointer _New_ptr = _Al.allocate(_New_capacity + 1); // throws

	mov	rcx, rdi
	mov	QWORD PTR [rsp+88], rbp
	add	rcx, 1
	mov	QWORD PTR [rsp+32], r15
	mov	rax, -1
	cmovb	rcx, rax
; File c:\program files (x86)\microsoft visual studio\2017\enterprise\vc\tools\msvc\14.11.25503\include\xmemory0

; 54   : 		return (_Ptr);

	xor	r15d, r15d
	test	rcx, rcx
	jne	SHORT $LN98@assign
	mov	ebp, r15d
	jmp	SHORT $LN97@assign
$LN98@assign:

; 55   : 		}
; 56   : 
; 57   : 	// check overflow of multiply
; 58   : 	if (static_cast<size_t>(-1) / _Sz < _Count)

	test	r15b, r15b
	je	SHORT $LN99@assign

; 59   : 		{
; 60   : 		_Xbad_alloc();	// report no memory

	call	QWORD PTR __imp_?_Xbad_alloc@std@@YAXXZ
	int	3
$LN99@assign:

; 61   : 		}
; 62   : 
; 63   : 	const size_t _User_size = _Count * _Sz;
; 64   : 
; 65   : #if defined(_M_IX86) || defined(_M_X64)
; 66   : 	if (_Try_aligned_allocation
; 67   : 		&& _BIG_ALLOCATION_THRESHOLD <= _User_size)

	cmp	rcx, 4096				; 00001000H
	jb	SHORT $LN100@assign

; 68   : 		{	// allocate large block
; 69   : 		static_assert(sizeof(void *) < _BIG_ALLOCATION_ALIGNMENT,
; 70   : 			"Big allocations should at least match vector register size");
; 71   : 		const size_t _Block_size = _NON_USER_SIZE + _User_size;

	lea	rax, QWORD PTR [rcx+39]

; 72   : 		if (_Block_size <= _User_size)

	cmp	rax, rcx
	ja	SHORT $LN101@assign

; 73   : 			{
; 74   : 			_Xbad_alloc();	// report no memory

	call	QWORD PTR __imp_?_Xbad_alloc@std@@YAXXZ
	int	3
$LN101@assign:

; 75   : 			}
; 76   : 
; 77   : 		const uintptr_t _Ptr_container =
; 78   : 			reinterpret_cast<uintptr_t>(::operator new(_Block_size));

	mov	rcx, rax
	call	??2@YAPEAX_K@Z				; operator new

